0000000000400318 <.interp>:
  400318: 2f                           	<unknown>
  400319: 6c                           	insb	%dx, %es:(%rdi)
  40031a: 69 62 36 34 2f 6c 64         	imull	$1684811572, 54(%rdx), %esp # imm = 0x646C2F34
  400321: 2d 6c 69 6e 75               	subl	$1970170220, %eax       # imm = 0x756E696C
  400326: 78 2d                        	js	0x400355
  400328: 78 38                        	js	0x400362
  40032a: 36 2d 36 34 2e 73            	subl	$1932407862, %eax       # imm = 0x732E3436
  400330: 6f                           	outsl	(%rsi), %dx
  400331: 2e 32 00                     	xorb	%cs:(%rax), %al


0000000000400338 <.note.gnu.property>:
  400338: 04 00                        	addb	$0, %al
  40033a: 00 00                        	addb	%al, (%rax)
  40033c: 10 00                        	adcb	%al, (%rax)
  40033e: 00 00                        	addb	%al, (%rax)
  400340: 05 00 00 00 47               	addl	$1191182336, %eax       # imm = 0x47000000
  400345: 4e 55                        	pushq	%rbp
  400347: 00 02                        	addb	%al, (%rdx)
  400349: 00 00                        	addb	%al, (%rax)
  40034b: c0 04 00 00                  	rolb	$0, (%rax,%rax)
  40034f: 00 03                        	addb	%al, (%rbx)
  400351: 00 00                        	addb	%al, (%rax)
  400353: 00 00                        	addb	%al, (%rax)
  400355: 00 00                        	addb	%al, (%rax)
  400357: 00                           	<unknown>


0000000000400358 <.note.gnu.build-id>:
  400358: 04 00                        	addb	$0, %al
  40035a: 00 00                        	addb	%al, (%rax)
  40035c: 14 00                        	adcb	$0, %al
  40035e: 00 00                        	addb	%al, (%rax)
  400360: 03 00                        	addl	(%rax), %eax
  400362: 00 00                        	addb	%al, (%rax)
  400364: 47 4e                        	<unknown>
  400366: 55                           	pushq	%rbp
  400367: 00 7c b7 07                  	addb	%bh, 7(%rdi,%rsi,4)
  40036b: 11 98 23 53 b2 8f            	adcl	%ebx, -1884138717(%rax)
  400371: 3e 76 55                     	jbe	0x4003c9
  400374: a5                           	movsl	(%rsi), %es:(%rdi)
  400375: cc                           	int3
  400376: 6e                           	outsb	(%rsi), %dx
  400377: 33 45 04                     	xorl	4(%rbp), %eax
  40037a: 18 e9                        	sbbb	%ch, %cl


000000000040037c <.note.ABI-tag>:
  40037c: 04 00                        	addb	$0, %al
  40037e: 00 00                        	addb	%al, (%rax)
  400380: 10 00                        	adcb	%al, (%rax)
  400382: 00 00                        	addb	%al, (%rax)
  400384: 01 00                        	addl	%eax, (%rax)
  400386: 00 00                        	addb	%al, (%rax)
  400388: 47 4e                        	<unknown>
  40038a: 55                           	pushq	%rbp
  40038b: 00 00                        	addb	%al, (%rax)
  40038d: 00 00                        	addb	%al, (%rax)
  40038f: 00 03                        	addb	%al, (%rbx)
  400391: 00 00                        	addb	%al, (%rax)
  400393: 00 02                        	addb	%al, (%rdx)
  400395: 00 00                        	addb	%al, (%rax)
  400397: 00 00                        	addb	%al, (%rax)
  400399: 00 00                        	addb	%al, (%rax)
  40039b: 00                           	<unknown>

Disassembly of section .gnu.hash:

00000000004003a0 <.gnu.hash>:
  4003a0: 02 00                        	addb	(%rax), %al
  4003a2: 00 00                        	addb	%al, (%rax)
  4003a4: 26 00 00                     	addb	%al, %es:(%rax)
  4003a7: 00 01                        	addb	%al, (%rcx)
  4003a9: 00 00                        	addb	%al, (%rax)
  4003ab: 00 06                        	addb	%al, (%rsi)
  4003ad: 00 00                        	addb	%al, (%rax)
  4003af: 00 00                        	addb	%al, (%rax)
  4003b1: 00 10                        	addb	%dl, (%rax)
  4003b3: 02 01                        	addb	(%rcx), %al
  4003b5: 00 04 00                     	addb	%al, (%rax,%rax)
  4003b8: 26 00 00                     	addb	%al, %es:(%rax)
  4003bb: 00 00                        	addb	%al, (%rax)
  4003bd: 00 00                        	addb	%al, (%rax)
  4003bf: 00 14 98                     	addb	%dl, (%rax,%rbx,4)
  4003c2: 0c 43                        	orb	$67, %al
  4003c4: 73 96                        	jae	0x40035c <.note.gnu.build-id+0x4>
  4003c6: 07                           	<unknown>
  4003c7: 02                           	<unknown>


00000000004003c8 <.dynsym>:
		...
  4003e0: 3f                           	<unknown>
  4003e1: 04 00                        	addb	$0, %al
  4003e3: 00 12                        	addb	%dl, (%rdx)
		...
  4003f5: 00 00                        	addb	%al, (%rax)
  4003f7: 00 12                        	addb	%dl, (%rdx)
  4003f9: 02 00                        	addb	(%rax), %al
  4003fb: 00 12                        	addb	%dl, (%rdx)
		...
  40040d: 00 00                        	addb	%al, (%rax)
  40040f: 00 ec                        	addb	%ch, %ah
  400411: 03 00                        	addl	(%rax), %eax
  400413: 00 12                        	addb	%dl, (%rdx)
		...
  400425: 00 00                        	addb	%al, (%rax)
  400427: 00 a5 02 00 00 12            	addb	%ah, 301989890(%rbp)
		...
  40043d: 00 00                        	addb	%al, (%rax)
  40043f: 00 66 02                     	addb	%ah, 2(%rsi)
  400442: 00 00                        	addb	%al, (%rax)
  400444: 12 00                        	adcb	(%rax), %al
		...
  400456: 00 00                        	addb	%al, (%rax)
  400458: 83 00 00                     	addl	$0, (%rax)
  40045b: 00 12                        	addb	%dl, (%rdx)
		...
  40046d: 00 00                        	addb	%al, (%rax)
  40046f: 00 1f                        	addb	%bl, (%rdi)
  400471: 00 00                        	addb	%al, (%rax)
  400473: 00 12                        	addb	%dl, (%rdx)
		...
  400485: 00 00                        	addb	%al, (%rax)
  400487: 00 b2 03 00 00 12            	addb	%dh, 301989891(%rdx)
		...
  40049d: 00 00                        	addb	%al, (%rax)
  40049f: 00 df                        	addb	%bl, %bh
  4004a1: 00 00                        	addb	%al, (%rax)
  4004a3: 00 12                        	addb	%dl, (%rdx)
		...
  4004b5: 00 00                        	addb	%al, (%rax)
  4004b7: 00 a4 01 00 00 11 00         	addb	%ah, 1114112(%rcx,%rax)
		...
  4004ce: 00 00                        	addb	%al, (%rax)
  4004d0: 0d 05 00 00 12               	orl	$301989893, %eax        # imm = 0x12000005
		...
  4004e5: 00 00                        	addb	%al, (%rax)
  4004e7: 00 f3                        	addb	%dh, %bl
  4004e9: 01 00                        	addl	%eax, (%rax)
  4004eb: 00 12                        	addb	%dl, (%rdx)
		...
  4004fd: 00 00                        	addb	%al, (%rax)
  4004ff: 00 28                        	addb	%ch, (%rax)
  400501: 03 00                        	addl	(%rax), %eax
  400503: 00 12                        	addb	%dl, (%rdx)
		...
  400515: 00 00                        	addb	%al, (%rax)
  400517: 00 60 03                     	addb	%ah, 3(%rax)
  40051a: 00 00                        	addb	%al, (%rax)
  40051c: 12 00                        	adcb	(%rax), %al
		...
  40052e: 00 00                        	addb	%al, (%rax)
  400530: 2a 00                        	subb	(%rax), %al
  400532: 00 00                        	addb	%al, (%rax)
  400534: 12 00                        	adcb	(%rax), %al
		...
  400546: 00 00                        	addb	%al, (%rax)
  400548: 93                           	xchgl	%ebx, %eax
  400549: 01 00                        	addl	%eax, (%rax)
  40054b: 00 12                        	addb	%dl, (%rdx)
		...
  40055d: 00 00                        	addb	%al, (%rax)
  40055f: 00 3c 00                     	addb	%bh, (%rax,%rax)
  400562: 00 00                        	addb	%al, (%rax)
  400564: 12 00                        	adcb	(%rax), %al
		...
  400576: 00 00                        	addb	%al, (%rax)
  400578: fc                           	cld
  400579: 04 00                        	addb	$0, %al
  40057b: 00 12                        	addb	%dl, (%rdx)
		...
  40058d: 00 00                        	addb	%al, (%rax)
  40058f: 00 15 05 00 00 12            	addb	%dl, 301989893(%rip)    # 0x1240059a <_ZSt3cin+0x11ff833a>
		...
  4005a5: 00 00                        	addb	%al, (%rax)
  4005a7: 00 72 04                     	addb	%dh, 4(%rdx)
  4005aa: 00 00                        	addb	%al, (%rax)
  4005ac: 12 00                        	adcb	(%rax), %al
		...
  4005be: 00 00                        	addb	%al, (%rax)
  4005c0: ca 01 00                     	lretl	$1
  4005c3: 00 11                        	addb	%dl, (%rcx)
		...
  4005d5: 00 00                        	addb	%al, (%rax)
  4005d7: 00 3a                        	addb	%bh, (%rdx)
  4005d9: 01 00                        	addl	%eax, (%rax)
  4005db: 00 12                        	addb	%dl, (%rdx)
		...
  4005ed: 00 00                        	addb	%al, (%rax)
  4005ef: 00 32                        	addb	%dh, (%rdx)
  4005f1: 04 00                        	addb	$0, %al
  4005f3: 00 12                        	addb	%dl, (%rdx)
		...
  400605: 00 00                        	addb	%al, (%rax)
  400607: 00 49 00                     	addb	%cl, (%rcx)
  40060a: 00 00                        	addb	%al, (%rax)
  40060c: 12 00                        	adcb	(%rax), %al
		...
  40061e: 00 00                        	addb	%al, (%rax)
  400620: be 00 00 00 12               	movl	$301989888, %esi        # imm = 0x12000000
		...
  400635: 00 00                        	addb	%al, (%rax)
  400637: 00 9a 03 00 00 12            	addb	%bl, 301989891(%rdx)
		...
  40064d: 00 00                        	addb	%al, (%rax)
  40064f: 00 66 03                     	addb	%ah, 3(%rsi)
  400652: 00 00                        	addb	%al, (%rax)
  400654: 12 00                        	adcb	(%rax), %al
		...
  400666: 00 00                        	addb	%al, (%rax)
  400668: 2c 05                        	subb	$5, %al
  40066a: 00 00                        	addb	%al, (%rax)
  40066c: 12 00                        	adcb	(%rax), %al
		...
  40067e: 00 00                        	addb	%al, (%rax)
  400680: 44 02 00                     	addb	(%rax), %r8b
  400683: 00 12                        	addb	%dl, (%rdx)
		...
  400695: 00 00                        	addb	%al, (%rax)
  400697: 00 d4                        	addb	%dl, %ah
  400699: 02 00                        	addb	(%rax), %al
  40069b: 00 12                        	addb	%dl, (%rdx)
		...
  4006ad: 00 00                        	addb	%al, (%rax)
  4006af: 00 32                        	addb	%dh, (%rdx)
  4006b1: 00 00                        	addb	%al, (%rax)
  4006b3: 00 12                        	addb	%dl, (%rdx)
		...
  4006c5: 00 00                        	addb	%al, (%rax)
  4006c7: 00 e3                        	addb	%ah, %bl
  4006c9: 04 00                        	addb	$0, %al
  4006cb: 00 12                        	addb	%dl, (%rdx)
		...
  4006dd: 00 00                        	addb	%al, (%rax)
  4006df: 00 59 02                     	addb	%bl, 2(%rcx)
  4006e2: 00 00                        	addb	%al, (%rax)
  4006e4: 12 00                        	adcb	(%rax), %al
		...
  4006f6: 00 00                        	addb	%al, (%rax)
  4006f8: ef                           	outl	%eax, %dx
  4006f9: 00 00                        	addb	%al, (%rax)
  4006fb: 00 12                        	addb	%dl, (%rdx)
		...
  40070d: 00 00                        	addb	%al, (%rax)
  40070f: 00 1a                        	addb	%bl, (%rdx)
  400711: 05 00 00 12 00               	addl	$1179648, %eax          # imm = 0x120000
		...
  400726: 00 00                        	addb	%al, (%rax)
  400728: 10 00                        	adcb	%al, (%rax)
  40072a: 00 00                        	addb	%al, (%rax)
  40072c: 20 00                        	andb	%al, (%rax)
		...
  40073e: 00 00                        	addb	%al, (%rax)
  400740: 7b 01                        	jnp	0x400743 <.dynsym+0x37b>
  400742: 00 00                        	addb	%al, (%rax)
  400744: 12 00                        	adcb	(%rax), %al
		...
  400756: 00 00                        	addb	%al, (%rax)
  400758: 28 04 00                     	subb	%al, (%rax,%rax)
  40075b: 00 11                        	addb	%dl, (%rcx)
  40075d: 00 1c 00                     	addb	%bl, (%rax,%rax)
  400760: 40 81 40 00 00 00 00 00      	addl	$0, (%rax)
  400768: 10 01                        	adcb	%al, (%rcx)
  40076a: 00 00                        	addb	%al, (%rax)
  40076c: 00 00                        	addb	%al, (%rax)
  40076e: 00 00                        	addb	%al, (%rax)
  400770: 31 01                        	xorl	%eax, (%rcx)
  400772: 00 00                        	addb	%al, (%rax)
  400774: 11 00                        	adcl	%eax, (%rax)
  400776: 1c 00                        	sbbb	$0, %al
  400778: 60                           	<unknown>
  400779: 82                           	<unknown>
  40077a: 40 00 00                     	addb	%al, (%rax)
  40077d: 00 00                        	addb	%al, (%rax)
  40077f: 00 18                        	addb	%bl, (%rax)
  400781: 01 00                        	addl	%eax, (%rax)
  400783: 00 00                        	addb	%al, (%rax)
  400785: 00 00                        	addb	%al, (%rax)
  400787: 00                           	<unknown>


0000000000400788 <.dynstr>:
  400788: 00 6c 69 62                  	addb	%ch, 98(%rcx,%rbp,2)
  40078c: 73 74                        	jae	0x400802 <.dynstr+0x7a>
  40078e: 64 63 2b                     	movslq	%fs:(%rbx), %ebp
  400791: 2b 2e                        	subl	(%rsi), %ebp
  400793: 73 6f                        	jae	0x400804 <.dynstr+0x7c>
  400795: 2e 36 00 5f 5f               	addb	%bl, %ss:95(%rdi)
  40079a: 67 6d                        	insl	%dx, %es:(%edi)
  40079c: 6f                           	outsl	(%rsi), %dx
  40079d: 6e                           	outsb	(%rsi), %dx
  40079e: 5f                           	popq	%rdi
  40079f: 73 74                        	jae	0x400815 <.dynstr+0x8d>
  4007a1: 61                           	<unknown>
  4007a2: 72 74                        	jb	0x400818 <.dynstr+0x90>
  4007a4: 5f                           	popq	%rdi
  4007a5: 5f                           	popq	%rdi
  4007a6: 00 5f 5a                     	addb	%bl, 90(%rdi)
  4007a9: 4e 53                        	pushq	%rbx
  4007ab: 69 72 73 45 52 69 00         	imull	$6902341, 115(%rdx), %esi # imm = 0x695245
  4007b2: 5f                           	popq	%rdi
  4007b3: 5a                           	popq	%rdx
  4007b4: 64 6c                        	insb	%dx, %es:(%rdi)
  4007b6: 50                           	pushq	%rax
  4007b7: 76 6d                        	jbe	0x400826 <.dynstr+0x9e>
  4007b9: 00 5f 5a                     	addb	%bl, 90(%rdi)
  4007bc: 4e 53                        	pushq	%rbx
  4007be: 6f                           	outsl	(%rsi), %dx
  4007bf: 6c                           	insb	%dx, %es:(%rdi)
  4007c0: 73 45                        	jae	0x400807 <.dynstr+0x7f>
  4007c2: 69 00 5f 5a 4e 53            	imull	$1397643871, (%rax), %eax # imm = 0x534E5A5F
  4007c8: 61                           	<unknown>
  4007c9: 49 63 45 44                  	movslq	68(%r13), %rax
  4007cd: 31 45 76                     	xorl	%eax, 118(%rbp)
  4007d0: 00 5f 5a                     	addb	%bl, 90(%rdi)
  4007d3: 4e 53                        	pushq	%rbx
  4007d5: 74 37                        	je	0x40080e <.dynstr+0x86>
  4007d7: 5f                           	popq	%rdi
  4007d8: 5f                           	popq	%rdi
  4007d9: 63 78 78                     	movslq	120(%rax), %edi
  4007dc: 31 31                        	xorl	%esi, (%rcx)
  4007de: 31 32                        	xorl	%esi, (%rdx)
  4007e0: 62                           	<unknown>
  4007e1: 61                           	<unknown>
  4007e2: 73 69                        	jae	0x40084d <.dynstr+0xc5>
  4007e4: 63 5f 73                     	movslq	115(%rdi), %ebx
  4007e7: 74 72                        	je	0x40085b <.dynstr+0xd3>
  4007e9: 69 6e 67 49 63 53 74         	imull	$1951621961, 103(%rsi), %ebp # imm = 0x74536349
  4007f0: 31 31                        	xorl	%esi, (%rcx)
  4007f2: 63 68 61                     	movslq	97(%rax), %ebp
  4007f5: 72 5f                        	jb	0x400856 <.dynstr+0xce>
  4007f7: 74 72                        	je	0x40086b <.dynstr+0xe3>
  4007f9: 61                           	<unknown>
  4007fa: 69 74 73 49 63 45 53 61      	imull	$1632847203, 73(%rbx,%rsi,2), %esi # imm = 0x61534563
  400802: 49 63 45 45                  	movslq	69(%r13), %rax
  400806: 43 31 45 76                  	xorl	%eax, 118(%r13)
  40080a: 00 5f 5a                     	addb	%bl, 90(%rdi)
  40080d: 53                           	pushq	%rbx
  40080e: 74 34                        	je	0x400844 <.dynstr+0xbc>
  400810: 65 6e                        	outsb	%gs:(%rsi), %dx
  400812: 64 6c                        	insb	%dx, %es:(%rdi)
  400814: 49 63 53 74                  	movslq	116(%r11), %rdx
  400818: 31 31                        	xorl	%esi, (%rcx)
  40081a: 63 68 61                     	movslq	97(%rax), %ebp
  40081d: 72 5f                        	jb	0x40087e <.dynstr+0xf6>
  40081f: 74 72                        	je	0x400893 <.dynstr+0x10b>
  400821: 61                           	<unknown>
  400822: 69 74 73 49 63 45 45 52      	imull	$1380271459, 73(%rbx,%rsi,2), %esi # imm = 0x52454563
  40082a: 53                           	pushq	%rbx
  40082b: 74 31                        	je	0x40085e <.dynstr+0xd6>
  40082d: 33 62 61                     	xorl	97(%rdx), %esp
  400830: 73 69                        	jae	0x40089b <.dynstr+0x113>
  400832: 63 5f 6f                     	movslq	111(%rdi), %ebx
  400835: 73 74                        	jae	0x4008ab <.dynstr+0x123>
  400837: 72 65                        	jb	0x40089e <.dynstr+0x116>
  400839: 61                           	<unknown>
  40083a: 6d                           	insl	%dx, %es:(%rdi)
  40083b: 49 54                        	pushq	%r12
  40083d: 5f                           	popq	%rdi
  40083e: 54                           	pushq	%rsp
  40083f: 30 5f 45                     	xorb	%bl, 69(%rdi)
  400842: 53                           	pushq	%rbx
  400843: 36 5f                        	popq	%rdi
  400845: 00 5f 5a                     	addb	%bl, 90(%rdi)
  400848: 4e 53                        	pushq	%rbx
  40084a: 74 31                        	je	0x40087d <.dynstr+0xf5>
  40084c: 33 72 61                     	xorl	97(%rdx), %esi
  40084f: 6e                           	outsb	(%rsi), %dx
  400850: 64 6f                        	outsl	%fs:(%rsi), %dx
  400852: 6d                           	insl	%dx, %es:(%rdi)
  400853: 5f                           	popq	%rdi
  400854: 64 65 76 69                  	jbe	0x4008c1 <.dynstr+0x139>
  400858: 63 65 39                     	movslq	57(%rbp), %esp
  40085b: 5f                           	popq	%rdi
  40085c: 4d 5f                        	popq	%r15
  40085e: 67 65 74 76                  	je	0x4008d8 <.dynstr+0x150>
  400862: 61                           	<unknown>
  400863: 6c                           	insb	%dx, %es:(%rdi)
  400864: 45 76 00                     	jbe	0x400867 <.dynstr+0xdf>
  400867: 5f                           	popq	%rdi
  400868: 5a                           	popq	%rdx
  400869: 4e 53                        	pushq	%rbx
  40086b: 69 36 69 67 6e 6f            	imull	$1869506409, (%rsi), %esi # imm = 0x6F6E6769
  400871: 72 65                        	jb	0x4008d8 <.dynstr+0x150>
  400873: 45 6c                        	insb	%dx, %es:(%rdi)
  400875: 69 00 5f 5a 4e 53            	imull	$1397643871, (%rax), %eax # imm = 0x534E5A5F
  40087b: 74 31                        	je	0x4008ae <.dynstr+0x126>
  40087d: 34 62                        	xorb	$98, %al
  40087f: 61                           	<unknown>
  400880: 73 69                        	jae	0x4008eb <.dynstr+0x163>
  400882: 63 5f 69                     	movslq	105(%rdi), %ebx
  400885: 66 73 74                     	jae	0x4008fc <.dynstr+0x174>
  400888: 72 65                        	jb	0x4008ef <.dynstr+0x167>
  40088a: 61                           	<unknown>
  40088b: 6d                           	insl	%dx, %es:(%rdi)
  40088c: 49 63 53 74                  	movslq	116(%r11), %rdx
  400890: 31 31                        	xorl	%esi, (%rcx)
  400892: 63 68 61                     	movslq	97(%rax), %ebp
  400895: 72 5f                        	jb	0x4008f6 <.dynstr+0x16e>
  400897: 74 72                        	je	0x40090b <.dynstr+0x183>
  400899: 61                           	<unknown>
  40089a: 69 74 73 49 63 45 45 43      	imull	$1128613219, 73(%rbx,%rsi,2), %esi # imm = 0x43454563
  4008a2: 31 45 50                     	xorl	%eax, 80(%rbp)
  4008a5: 4b 63 53 74                  	movslq	116(%r11), %rdx
  4008a9: 31 33                        	xorl	%esi, (%rbx)
  4008ab: 5f                           	popq	%rdi
  4008ac: 49 6f                        	outsl	(%rsi), %dx
  4008ae: 73 5f                        	jae	0x40090f <.dynstr+0x187>
  4008b0: 4f 70 65                     	jo	0x400918 <.dynstr+0x190>
  4008b3: 6e                           	outsb	(%rsi), %dx
  4008b4: 6d                           	insl	%dx, %es:(%rdi)
  4008b5: 6f                           	outsl	(%rsi), %dx
  4008b6: 64 65 00 5f 5a               	addb	%bl, %gs:90(%rdi)
  4008bb: 53                           	pushq	%rbx
  4008bc: 74 33                        	je	0x4008f1 <.dynstr+0x169>
  4008be: 63 69 6e                     	movslq	110(%rcx), %ebp
  4008c1: 00 5f 5a                     	addb	%bl, 90(%rdi)
  4008c4: 4e 53                        	pushq	%rbx
  4008c6: 74 37                        	je	0x4008ff <.dynstr+0x177>
  4008c8: 5f                           	popq	%rdi
  4008c9: 5f                           	popq	%rdi
  4008ca: 63 78 78                     	movslq	120(%rax), %edi
  4008cd: 31 31                        	xorl	%esi, (%rcx)
  4008cf: 31 32                        	xorl	%esi, (%rdx)
  4008d1: 62                           	<unknown>
  4008d2: 61                           	<unknown>
  4008d3: 73 69                        	jae	0x40093e <.dynstr+0x1b6>
  4008d5: 63 5f 73                     	movslq	115(%rdi), %ebx
  4008d8: 74 72                        	je	0x40094c <.dynstr+0x1c4>
  4008da: 69 6e 67 49 63 53 74         	imull	$1951621961, 103(%rsi), %ebp # imm = 0x74536349
  4008e1: 31 31                        	xorl	%esi, (%rcx)
  4008e3: 63 68 61                     	movslq	97(%rax), %ebp
  4008e6: 72 5f                        	jb	0x400947 <.dynstr+0x1bf>
  4008e8: 74 72                        	je	0x40095c <.dynstr+0x1d4>
  4008ea: 61                           	<unknown>
  4008eb: 69 74 73 49 63 45 53 61      	imull	$1632847203, 73(%rbx,%rsi,2), %esi # imm = 0x61534563
  4008f3: 49 63 45 45                  	movslq	69(%r13), %rax
  4008f7: 43 31 45 50                  	xorl	%eax, 80(%r13)
  4008fb: 4b 63 52 4b                  	movslq	75(%r10), %rdx
  4008ff: 53                           	pushq	%rbx
  400900: 33 5f 00                     	xorl	(%rdi), %ebx
  400903: 5f                           	popq	%rdi
  400904: 5a                           	popq	%rdx
  400905: 4e 53                        	pushq	%rbx
  400907: 74 38                        	je	0x400941 <.dynstr+0x1b9>
  400909: 69 6f 73 5f 62 61 73         	imull	$1935762015, 115(%rdi), %ebp # imm = 0x7361625F
  400910: 65 34 49                     	xorb	$73, %al
  400913: 6e                           	outsb	(%rsi), %dx
  400914: 69 74 44 31 45 76 00 5f      	imull	$1593865797, 49(%rsp,%rax,2), %esi # imm = 0x5F007645
  40091c: 5a                           	popq	%rdx
  40091d: 4e 53                        	pushq	%rbx
  40091f: 6f                           	outsl	(%rsi), %dx
  400920: 6c                           	insb	%dx, %es:(%rdi)
  400921: 73 45                        	jae	0x400968 <.dynstr+0x1e0>
  400923: 50                           	pushq	%rax
  400924: 46 52                        	pushq	%rdx
  400926: 53                           	pushq	%rbx
  400927: 6f                           	outsl	(%rsi), %dx
  400928: 53                           	pushq	%rbx
  400929: 5f                           	popq	%rdi
  40092a: 45 00 5f 5a                  	addb	%r11b, 90(%r15)
  40092e: 54                           	pushq	%rsp
  40092f: 56                           	pushq	%rsi
  400930: 4e 31 30                     	xorq	%r14, (%rax)
  400933: 5f                           	popq	%rdi
  400934: 5f                           	popq	%rdi
  400935: 63 78 78                     	movslq	120(%rax), %edi
  400938: 61                           	<unknown>
  400939: 62                           	<unknown>
  40093a: 69 76 31 31 37 5f 5f         	imull	$1600075569, 49(%rsi), %esi # imm = 0x5F5F3731
  400941: 63 6c 61 73                  	movslq	115(%rcx,%riz,2), %ebp
  400945: 73 5f                        	jae	0x4009a6 <.dynstr+0x21e>
  400947: 74 79                        	je	0x4009c2 <.dynstr+0x23a>
  400949: 70 65                        	jo	0x4009b0 <.dynstr+0x228>
  40094b: 5f                           	popq	%rdi
  40094c: 69 6e 66 6f 45 00 5f         	imull	$1593853295, 102(%rsi), %ebp # imm = 0x5F00456F
  400953: 5a                           	popq	%rdx
  400954: 54                           	pushq	%rsp
  400955: 56                           	pushq	%rsi
  400956: 4e 31 30                     	xorq	%r14, (%rax)
  400959: 5f                           	popq	%rdi
  40095a: 5f                           	popq	%rdi
  40095b: 63 78 78                     	movslq	120(%rax), %edi
  40095e: 61                           	<unknown>
  40095f: 62                           	<unknown>
  400960: 69 76 31 32 30 5f 5f         	imull	$1600073778, 49(%rsi), %esi # imm = 0x5F5F3032
  400967: 73 69                        	jae	0x4009d2 <.dynstr+0x24a>
  400969: 5f                           	popq	%rdi
  40096a: 63 6c 61 73                  	movslq	115(%rcx,%riz,2), %ebp
  40096e: 73 5f                        	jae	0x4009cf <.dynstr+0x247>
  400970: 74 79                        	je	0x4009eb <.dynstr+0x263>
  400972: 70 65                        	jo	0x4009d9 <.dynstr+0x251>
  400974: 5f                           	popq	%rdi
  400975: 69 6e 66 6f 45 00 5f         	imull	$1593853295, 102(%rsi), %ebp # imm = 0x5F00456F
  40097c: 5a                           	popq	%rdx
  40097d: 4e 53                        	pushq	%rbx
  40097f: 74 31                        	je	0x4009b2 <.dynstr+0x22a>
  400981: 33 72 61                     	xorl	97(%rdx), %esi
  400984: 6e                           	outsb	(%rsi), %dx
  400985: 64 6f                        	outsl	%fs:(%rsi), %dx
  400987: 6d                           	insl	%dx, %es:(%rdi)
  400988: 5f                           	popq	%rdi
  400989: 64 65 76 69                  	jbe	0x4009f6 <.dynstr+0x26e>
  40098d: 63 65 37                     	movslq	55(%rbp), %esp
  400990: 5f                           	popq	%rdi
  400991: 4d 5f                        	popq	%r15
  400993: 66 69 6e 69 45 76            	imulw	$30277, 105(%rsi), %bp  # imm = 0x7645
  400999: 00 5f 5a                     	addb	%bl, 90(%rdi)
  40099c: 4e 53                        	pushq	%rbx
  40099e: 6f                           	outsl	(%rsi), %dx
  40099f: 6c                           	insb	%dx, %es:(%rdi)
  4009a0: 73 45                        	jae	0x4009e7 <.dynstr+0x25f>
  4009a2: 50                           	pushq	%rax
  4009a3: 53                           	pushq	%rbx
  4009a4: 74 31                        	je	0x4009d7 <.dynstr+0x24f>
  4009a6: 35 62 61 73 69               	xorl	$1769169250, %eax       # imm = 0x69736162
  4009ab: 63 5f 73                     	movslq	115(%rdi), %ebx
  4009ae: 74 72                        	je	0x400a22 <.dynstr+0x29a>
  4009b0: 65 61                        	<unknown>
  4009b2: 6d                           	insl	%dx, %es:(%rdi)
  4009b3: 62 75 66 49 63               	<unknown>
  4009b8: 53                           	pushq	%rbx
  4009b9: 74 31                        	je	0x4009ec <.dynstr+0x264>
  4009bb: 31 63 68                     	xorl	%esp, 104(%rbx)
  4009be: 61                           	<unknown>
  4009bf: 72 5f                        	jb	0x400a20 <.dynstr+0x298>
  4009c1: 74 72                        	je	0x400a35 <.dynstr+0x2ad>
  4009c3: 61                           	<unknown>
  4009c4: 69 74 73 49 63 45 45 00      	imull	$4539747, 73(%rbx,%rsi,2), %esi # imm = 0x454563
  4009cc: 5f                           	popq	%rdi
  4009cd: 5f                           	popq	%rdi
  4009ce: 67 78 78                     	js	0x400a49 <.dynstr+0x2c1>
  4009d1: 5f                           	popq	%rdi
  4009d2: 70 65                        	jo	0x400a39 <.dynstr+0x2b1>
  4009d4: 72 73                        	jb	0x400a49 <.dynstr+0x2c1>
  4009d6: 6f                           	outsl	(%rsi), %dx
  4009d7: 6e                           	outsb	(%rsi), %dx
  4009d8: 61                           	<unknown>
  4009d9: 6c                           	insb	%dx, %es:(%rdi)
  4009da: 69 74 79 5f 76 30 00 5f      	imull	$1593847926, 95(%rcx,%rdi,2), %esi # imm = 0x5F003076
  4009e2: 5a                           	popq	%rdx
  4009e3: 4e 53                        	pushq	%rbx
  4009e5: 61                           	<unknown>
  4009e6: 49 63 45 43                  	movslq	67(%r13), %rax
  4009ea: 31 45 76                     	xorl	%eax, 118(%rbp)
  4009ed: 00 5f 5a                     	addb	%bl, 90(%rdi)
  4009f0: 4e 4b                        	<unknown>
  4009f2: 53                           	pushq	%rbx
  4009f3: 74 37                        	je	0x400a2c <.dynstr+0x2a4>
  4009f5: 5f                           	popq	%rdi
  4009f6: 5f                           	popq	%rdi
  4009f7: 63 78 78                     	movslq	120(%rax), %edi
  4009fa: 31 31                        	xorl	%esi, (%rcx)
  4009fc: 31 32                        	xorl	%esi, (%rdx)
  4009fe: 62                           	<unknown>
  4009ff: 61                           	<unknown>
  400a00: 73 69                        	jae	0x400a6b <.dynstr+0x2e3>
  400a02: 63 5f 73                     	movslq	115(%rdi), %ebx
  400a05: 74 72                        	je	0x400a79 <.dynstr+0x2f1>
  400a07: 69 6e 67 49 63 53 74         	imull	$1951621961, 103(%rsi), %ebp # imm = 0x74536349
  400a0e: 31 31                        	xorl	%esi, (%rcx)
  400a10: 63 68 61                     	movslq	97(%rax), %ebp
  400a13: 72 5f                        	jb	0x400a74 <.dynstr+0x2ec>
  400a15: 74 72                        	je	0x400a89 <.dynstr+0x301>
  400a17: 61                           	<unknown>
  400a18: 69 74 73 49 63 45 53 61      	imull	$1632847203, 73(%rbx,%rsi,2), %esi # imm = 0x61534563
  400a20: 49 63 45 45                  	movslq	69(%r13), %rax
  400a24: 35 63 5f 73 74               	xorl	$1953718115, %eax       # imm = 0x74735F63
  400a29: 72 45                        	jb	0x400a70 <.dynstr+0x2e8>
  400a2b: 76 00                        	jbe	0x400a2d <.dynstr+0x2a5>
  400a2d: 5f                           	popq	%rdi
  400a2e: 5a                           	popq	%rdx
  400a2f: 4e 53                        	pushq	%rbx
  400a31: 74 31                        	je	0x400a64 <.dynstr+0x2dc>
  400a33: 34 62                        	xorb	$98, %al
  400a35: 61                           	<unknown>
  400a36: 73 69                        	jae	0x400aa1 <.dynstr+0x319>
  400a38: 63 5f 69                     	movslq	105(%rdi), %ebx
  400a3b: 66 73 74                     	jae	0x400ab2 <.dynstr+0x32a>
  400a3e: 72 65                        	jb	0x400aa5 <.dynstr+0x31d>
  400a40: 61                           	<unknown>
  400a41: 6d                           	insl	%dx, %es:(%rdi)
  400a42: 49 63 53 74                  	movslq	116(%r11), %rdx
  400a46: 31 31                        	xorl	%esi, (%rcx)
  400a48: 63 68 61                     	movslq	97(%rax), %ebp
  400a4b: 72 5f                        	jb	0x400aac <.dynstr+0x324>
  400a4d: 74 72                        	je	0x400ac1 <.dynstr+0x339>
  400a4f: 61                           	<unknown>
  400a50: 69 74 73 49 63 45 45 44      	imull	$1145390435, 73(%rbx,%rsi,2), %esi # imm = 0x44454563
  400a58: 31 45 76                     	xorl	%eax, 118(%rbp)
  400a5b: 00 5f 5a                     	addb	%bl, 90(%rdi)
  400a5e: 4e 53                        	pushq	%rbx
  400a60: 74 31                        	je	0x400a93 <.dynstr+0x30b>
  400a62: 33 72 61                     	xorl	97(%rdx), %esi
  400a65: 6e                           	outsb	(%rsi), %dx
  400a66: 64 6f                        	outsl	%fs:(%rsi), %dx
  400a68: 6d                           	insl	%dx, %es:(%rdi)
  400a69: 5f                           	popq	%rdi
  400a6a: 64 65 76 69                  	jbe	0x400ad7 <.dynstr+0x34f>
  400a6e: 63 65 37                     	movslq	55(%rbp), %esp
  400a71: 5f                           	popq	%rdi
  400a72: 4d 5f                        	popq	%r15
  400a74: 69 6e 69 74 45 52 4b         	imull	$1263682932, 105(%rsi), %ebp # imm = 0x4B524574
  400a7b: 4e 53                        	pushq	%rbx
  400a7d: 74 37                        	je	0x400ab6 <.dynstr+0x32e>
  400a7f: 5f                           	popq	%rdi
  400a80: 5f                           	popq	%rdi
  400a81: 63 78 78                     	movslq	120(%rax), %edi
  400a84: 31 31                        	xorl	%esi, (%rcx)
  400a86: 31 32                        	xorl	%esi, (%rdx)
  400a88: 62                           	<unknown>
  400a89: 61                           	<unknown>
  400a8a: 73 69                        	jae	0x400af5 <.dynstr+0x36d>
  400a8c: 63 5f 73                     	movslq	115(%rdi), %ebx
  400a8f: 74 72                        	je	0x400b03 <.dynstr+0x37b>
  400a91: 69 6e 67 49 63 53 74         	imull	$1951621961, 103(%rsi), %ebp # imm = 0x74536349
  400a98: 31 31                        	xorl	%esi, (%rcx)
  400a9a: 63 68 61                     	movslq	97(%rax), %ebp
  400a9d: 72 5f                        	jb	0x400afe <.dynstr+0x376>
  400a9f: 74 72                        	je	0x400b13 <.dynstr+0x38b>
  400aa1: 61                           	<unknown>
  400aa2: 69 74 73 49 63 45 53 61      	imull	$1632847203, 73(%rbx,%rsi,2), %esi # imm = 0x61534563
  400aaa: 49 63 45 45                  	movslq	69(%r13), %rax
  400aae: 45 00 5f 5a                  	addb	%r11b, 90(%r15)
  400ab2: 53                           	pushq	%rbx
  400ab3: 74 6c                        	je	0x400b21 <.dynstr+0x399>
  400ab5: 73 49                        	jae	0x400b00 <.dynstr+0x378>
  400ab7: 53                           	pushq	%rbx
  400ab8: 74 31                        	je	0x400aeb <.dynstr+0x363>
  400aba: 31 63 68                     	xorl	%esp, 104(%rbx)
  400abd: 61                           	<unknown>
  400abe: 72 5f                        	jb	0x400b1f <.dynstr+0x397>
  400ac0: 74 72                        	je	0x400b34 <.dynstr+0x3ac>
  400ac2: 61                           	<unknown>
  400ac3: 69 74 73 49 63 45 45 52      	imull	$1380271459, 73(%rbx,%rsi,2), %esi # imm = 0x52454563
  400acb: 53                           	pushq	%rbx
  400acc: 74 31                        	je	0x400aff <.dynstr+0x377>
  400ace: 33 62 61                     	xorl	97(%rdx), %esp
  400ad1: 73 69                        	jae	0x400b3c <.dynstr+0x3b4>
  400ad3: 63 5f 6f                     	movslq	111(%rdi), %ebx
  400ad6: 73 74                        	jae	0x400b4c <.dynstr+0x3c4>
  400ad8: 72 65                        	jb	0x400b3f <.dynstr+0x3b7>
  400ada: 61                           	<unknown>
  400adb: 6d                           	insl	%dx, %es:(%rdi)
  400adc: 49 63 54 5f 45               	movslq	69(%r15,%rbx,2), %rdx
  400ae1: 53                           	pushq	%rbx
  400ae2: 35 5f 50 4b 63               	xorl	$1665880159, %eax       # imm = 0x634B505F
  400ae7: 00 5f 5a                     	addb	%bl, 90(%rdi)
  400aea: 6e                           	outsb	(%rsi), %dx
  400aeb: 77 6d                        	ja	0x400b5a <.dynstr+0x3d2>
  400aed: 00 5f 5a                     	addb	%bl, 90(%rdi)
  400af0: 4e 4b                        	<unknown>
  400af2: 53                           	pushq	%rbx
  400af3: 74 31                        	je	0x400b26 <.dynstr+0x39e>
  400af5: 34 62                        	xorb	$98, %al
  400af7: 61                           	<unknown>
  400af8: 73 69                        	jae	0x400b63 <.dynstr+0x3db>
  400afa: 63 5f 69                     	movslq	105(%rdi), %ebx
  400afd: 66 73 74                     	jae	0x400b74 <.dynstr+0x3ec>
  400b00: 72 65                        	jb	0x400b67 <.dynstr+0x3df>
  400b02: 61                           	<unknown>
  400b03: 6d                           	insl	%dx, %es:(%rdi)
  400b04: 49 63 53 74                  	movslq	116(%r11), %rdx
  400b08: 31 31                        	xorl	%esi, (%rcx)
  400b0a: 63 68 61                     	movslq	97(%rax), %ebp
  400b0d: 72 5f                        	jb	0x400b6e <.dynstr+0x3e6>
  400b0f: 74 72                        	je	0x400b83 <.dynstr+0x3fb>
  400b11: 61                           	<unknown>
  400b12: 69 74 73 49 63 45 45 35      	imull	$893732195, 73(%rbx,%rsi,2), %esi # imm = 0x35454563
  400b1a: 72 64                        	jb	0x400b80 <.dynstr+0x3f8>
  400b1c: 62 75 66 45 76               	<unknown>
  400b21: 00 5f 5a                     	addb	%bl, 90(%rdi)
  400b24: 4e 53                        	pushq	%rbx
  400b26: 74 38                        	je	0x400b60 <.dynstr+0x3d8>
  400b28: 69 6f 73 5f 62 61 73         	imull	$1935762015, 115(%rdi), %ebp # imm = 0x7361625F
  400b2f: 65 34 49                     	xorb	$73, %al
  400b32: 6e                           	outsb	(%rsi), %dx
  400b33: 69 74 43 31 45 76 00 5f      	imull	$1593865797, 49(%rbx,%rax,2), %esi # imm = 0x5F007645
  400b3b: 5a                           	popq	%rdx
  400b3c: 4e 53                        	pushq	%rbx
  400b3e: 74 37                        	je	0x400b77 <.dynstr+0x3ef>
  400b40: 5f                           	popq	%rdi
  400b41: 5f                           	popq	%rdi
  400b42: 63 78 78                     	movslq	120(%rax), %edi
  400b45: 31 31                        	xorl	%esi, (%rcx)
  400b47: 31 32                        	xorl	%esi, (%rdx)
  400b49: 62                           	<unknown>
  400b4a: 61                           	<unknown>
  400b4b: 73 69                        	jae	0x400bb6 <.dynstr+0x42e>
  400b4d: 63 5f 73                     	movslq	115(%rdi), %ebx
  400b50: 74 72                        	je	0x400bc4 <.dynstr+0x43c>
  400b52: 69 6e 67 49 63 53 74         	imull	$1951621961, 103(%rsi), %ebp # imm = 0x74536349
  400b59: 31 31                        	xorl	%esi, (%rcx)
  400b5b: 63 68 61                     	movslq	97(%rax), %ebp
  400b5e: 72 5f                        	jb	0x400bbf <.dynstr+0x437>
  400b60: 74 72                        	je	0x400bd4 <.dynstr+0x44c>
  400b62: 61                           	<unknown>
  400b63: 69 74 73 49 63 45 53 61      	imull	$1632847203, 73(%rbx,%rsi,2), %esi # imm = 0x61534563
  400b6b: 49 63 45 45                  	movslq	69(%r13), %rax
  400b6f: 44 31 45 76                  	xorl	%r8d, 118(%rbp)
  400b73: 00 5f 5a                     	addb	%bl, 90(%rdi)
  400b76: 53                           	pushq	%rbx
  400b77: 74 72                        	je	0x400beb <.dynstr+0x463>
  400b79: 73 49                        	jae	0x400bc4 <.dynstr+0x43c>
  400b7b: 63 53 74                     	movslq	116(%rbx), %edx
  400b7e: 31 31                        	xorl	%esi, (%rcx)
  400b80: 63 68 61                     	movslq	97(%rax), %ebp
  400b83: 72 5f                        	jb	0x400be4 <.dynstr+0x45c>
  400b85: 74 72                        	je	0x400bf9 <.dynstr+0x471>
  400b87: 61                           	<unknown>
  400b88: 69 74 73 49 63 45 45 52      	imull	$1380271459, 73(%rbx,%rsi,2), %esi # imm = 0x52454563
  400b90: 53                           	pushq	%rbx
  400b91: 74 31                        	je	0x400bc4 <.dynstr+0x43c>
  400b93: 33 62 61                     	xorl	97(%rdx), %esp
  400b96: 73 69                        	jae	0x400c01 <.dynstr+0x479>
  400b98: 63 5f 69                     	movslq	105(%rdi), %ebx
  400b9b: 73 74                        	jae	0x400c11 <.dynstr+0x489>
  400b9d: 72 65                        	jb	0x400c04 <.dynstr+0x47c>
  400b9f: 61                           	<unknown>
  400ba0: 6d                           	insl	%dx, %es:(%rdi)
  400ba1: 49 54                        	pushq	%r12
  400ba3: 5f                           	popq	%rdi
  400ba4: 54                           	pushq	%rsp
  400ba5: 30 5f 45                     	xorb	%bl, 69(%rdi)
  400ba8: 53                           	pushq	%rbx
  400ba9: 36 5f                        	popq	%rdi
  400bab: 50                           	pushq	%rax
  400bac: 53                           	pushq	%rbx
  400bad: 33 5f 00                     	xorl	(%rdi), %ebx
  400bb0: 5f                           	popq	%rdi
  400bb1: 5a                           	popq	%rdx
  400bb2: 53                           	pushq	%rbx
  400bb3: 74 34                        	je	0x400be9 <.dynstr+0x461>
  400bb5: 63 6f 75                     	movslq	117(%rdi), %ebp
  400bb8: 74 00                        	je	0x400bba <.dynstr+0x432>
  400bba: 5f                           	popq	%rdi
  400bbb: 5a                           	popq	%rdx
  400bbc: 4e 53                        	pushq	%rbx
  400bbe: 69 33 67 65 74 45            	imull	$1165256039, (%rbx), %esi # imm = 0x45746567
  400bc4: 52                           	pushq	%rdx
  400bc5: 63 00                        	movslq	(%rax), %eax
  400bc7: 5f                           	popq	%rdi
  400bc8: 5a                           	popq	%rdx
  400bc9: 4e 53                        	pushq	%rbx
  400bcb: 74 31                        	je	0x400bfe <.dynstr+0x476>
  400bcd: 34 62                        	xorb	$98, %al
  400bcf: 61                           	<unknown>
  400bd0: 73 69                        	jae	0x400c3b <.dynstr+0x4b3>
  400bd2: 63 5f 69                     	movslq	105(%rdi), %ebx
  400bd5: 66 73 74                     	jae	0x400c4c <.dynstr+0x4c4>
  400bd8: 72 65                        	jb	0x400c3f <.dynstr+0x4b7>
  400bda: 61                           	<unknown>
  400bdb: 6d                           	insl	%dx, %es:(%rdi)
  400bdc: 49 63 53 74                  	movslq	116(%r11), %rdx
  400be0: 31 31                        	xorl	%esi, (%rcx)
  400be2: 63 68 61                     	movslq	97(%rax), %ebp
  400be5: 72 5f                        	jb	0x400c46 <.dynstr+0x4be>
  400be7: 74 72                        	je	0x400c5b <.dynstr+0x4d3>
  400be9: 61                           	<unknown>
  400bea: 69 74 73 49 63 45 45 35      	imull	$893732195, 73(%rbx,%rsi,2), %esi # imm = 0x35454563
  400bf2: 63 6c 6f 73                  	movslq	115(%rdi,%rbp,2), %ebp
  400bf6: 65 45 76 00                  	jbe	0x400bfa <.dynstr+0x472>
  400bfa: 5f                           	popq	%rdi
  400bfb: 5a                           	popq	%rdx
  400bfc: 53                           	pushq	%rbx
  400bfd: 74 72                        	je	0x400c71 <.dynstr+0x4e9>
  400bff: 73 49                        	jae	0x400c4a <.dynstr+0x4c2>
  400c01: 63 53 74                     	movslq	116(%rbx), %edx
  400c04: 31 31                        	xorl	%esi, (%rcx)
  400c06: 63 68 61                     	movslq	97(%rax), %ebp
  400c09: 72 5f                        	jb	0x400c6a <.dynstr+0x4e2>
  400c0b: 74 72                        	je	0x400c7f <.dynstr+0x4f7>
  400c0d: 61                           	<unknown>
  400c0e: 69 74 73 49 63 45 53 61      	imull	$1632847203, 73(%rbx,%rsi,2), %esi # imm = 0x61534563
  400c16: 49 63 45 45                  	movslq	69(%r13), %rax
  400c1a: 52                           	pushq	%rdx
  400c1b: 53                           	pushq	%rbx
  400c1c: 74 31                        	je	0x400c4f <.dynstr+0x4c7>
  400c1e: 33 62 61                     	xorl	97(%rdx), %esp
  400c21: 73 69                        	jae	0x400c8c <.dynstr+0x504>
  400c23: 63 5f 69                     	movslq	105(%rdi), %ebx
  400c26: 73 74                        	jae	0x400c9c <.dynstr+0x514>
  400c28: 72 65                        	jb	0x400c8f <.dynstr+0x507>
  400c2a: 61                           	<unknown>
  400c2b: 6d                           	insl	%dx, %es:(%rdi)
  400c2c: 49 54                        	pushq	%r12
  400c2e: 5f                           	popq	%rdi
  400c2f: 54                           	pushq	%rsp
  400c30: 30 5f 45                     	xorb	%bl, 69(%rdi)
  400c33: 53                           	pushq	%rbx
  400c34: 37                           	<unknown>
  400c35: 5f                           	popq	%rdi
  400c36: 52                           	pushq	%rdx
  400c37: 4e 53                        	pushq	%rbx
  400c39: 74 37                        	je	0x400c72 <.dynstr+0x4ea>
  400c3b: 5f                           	popq	%rdi
  400c3c: 5f                           	popq	%rdi
  400c3d: 63 78 78                     	movslq	120(%rax), %edi
  400c40: 31 31                        	xorl	%esi, (%rcx)
  400c42: 31 32                        	xorl	%esi, (%rdx)
  400c44: 62                           	<unknown>
  400c45: 61                           	<unknown>
  400c46: 73 69                        	jae	0x400cb1 <.dynstr+0x529>
  400c48: 63 5f 73                     	movslq	115(%rdi), %ebx
  400c4b: 74 72                        	je	0x400cbf <.dynstr+0x537>
  400c4d: 69 6e 67 49 53 34 5f         	imull	$1597264713, 103(%rsi), %ebp # imm = 0x5F345349
  400c54: 53                           	pushq	%rbx
  400c55: 35 5f 54 31 5f               	xorl	$1597068383, %eax       # imm = 0x5F31545F
  400c5a: 45 45                        	<unknown>
  400c5c: 00 6c 69 62                  	addb	%ch, 98(%rcx,%rbp,2)
  400c60: 67 63 63 5f                  	movslq	95(%ebx), %esp
  400c64: 73 2e                        	jae	0x400c94 <.dynstr+0x50c>
  400c66: 73 6f                        	jae	0x400cd7 <.dynstr+0x54f>
  400c68: 2e 31 00                     	xorl	%eax, %cs:(%rax)
  400c6b: 5f                           	popq	%rdi
  400c6c: 55                           	pushq	%rbp
  400c6d: 6e                           	outsb	(%rsi), %dx
  400c6e: 77 69                        	ja	0x400cd9 <.dynstr+0x551>
  400c70: 6e                           	outsb	(%rsi), %dx
  400c71: 64 5f                        	popq	%rdi
  400c73: 52                           	pushq	%rdx
  400c74: 65 73 75                     	jae	0x400cec <.dynstr+0x564>
  400c77: 6d                           	insl	%dx, %es:(%rdi)
  400c78: 65 00 6c 69 62               	addb	%ch, %gs:98(%rcx,%rbp,2)
  400c7d: 63 2e                        	movslq	(%rsi), %ebp
  400c7f: 73 6f                        	jae	0x400cf0 <.dynstr+0x568>
  400c81: 2e 36 00 5f 5f               	addb	%bl, %ss:95(%rdi)
  400c86: 73 74                        	jae	0x400cfc <.dynstr+0x574>
  400c88: 61                           	<unknown>
  400c89: 63 6b 5f                     	movslq	95(%rbx), %ebp
  400c8c: 63 68 6b                     	movslq	107(%rax), %ebp
  400c8f: 5f                           	popq	%rdi
  400c90: 66 61                        	<unknown>
  400c92: 69 6c 00 5f 5f 63 78 61      	imull	$1635279711, 95(%rax,%rax), %ebp # imm = 0x6178635F
  400c9a: 5f                           	popq	%rdi
  400c9b: 61                           	<unknown>
  400c9c: 74 65                        	je	0x400d03 <.dynstr+0x57b>
  400c9e: 78 69                        	js	0x400d09 <.dynstr+0x581>
  400ca0: 74 00                        	je	0x400ca2 <.dynstr+0x51a>
  400ca2: 5f                           	popq	%rdi
  400ca3: 5f                           	popq	%rdi
  400ca4: 6c                           	insb	%dx, %es:(%rdi)
  400ca5: 69 62 63 5f 73 74 61         	imull	$1635021663, 99(%rdx), %esp # imm = 0x6174735F
  400cac: 72 74                        	jb	0x400d22
  400cae: 5f                           	popq	%rdi
  400caf: 6d                           	insl	%dx, %es:(%rdi)
  400cb0: 61                           	<unknown>
  400cb1: 69 6e 00 73 6e 70 72         	imull	$1919970931, (%rsi), %ebp # imm = 0x72706E73
  400cb8: 69 6e 74 66 00 47 43         	imull	$1128726630, 116(%rsi), %ebp # imm = 0x43470066
  400cbf: 43 5f                        	popq	%r15
  400cc1: 33 2e                        	xorl	(%rsi), %ebp
  400cc3: 30 00                        	xorb	%al, (%rax)
  400cc5: 47 4c                        	<unknown>
  400cc7: 49 42                        	<unknown>
  400cc9: 43 5f                        	popq	%r15
  400ccb: 32 2e                        	xorb	(%rsi), %ch
  400ccd: 34 00                        	xorb	$0, %al
  400ccf: 47 4c                        	<unknown>
  400cd1: 49 42                        	<unknown>
  400cd3: 43 5f                        	popq	%r15
  400cd5: 32 2e                        	xorb	(%rsi), %ch
  400cd7: 32 2e                        	xorb	(%rsi), %ch
  400cd9: 35 00 43 58 58               	xorl	$1482179328, %eax       # imm = 0x58584300
  400cde: 41 42                        	<unknown>
  400ce0: 49 5f                        	popq	%r15
  400ce2: 31 2e                        	xorl	%ebp, (%rsi)
  400ce4: 33 2e                        	xorl	(%rsi), %ebp
  400ce6: 39 00                        	cmpl	%eax, (%rax)
  400ce8: 47 4c                        	<unknown>
  400cea: 49 42                        	<unknown>
  400cec: 43 58                        	popq	%r8
  400cee: 58                           	popq	%rax
  400cef: 5f                           	popq	%rdi
  400cf0: 33 2e                        	xorl	(%rsi), %ebp
  400cf2: 34 2e                        	xorb	$46, %al
  400cf4: 31 38                        	xorl	%edi, (%rax)
  400cf6: 00 43 58                     	addb	%al, 88(%rbx)
  400cf9: 58                           	popq	%rax
  400cfa: 41 42                        	<unknown>
  400cfc: 49 5f                        	popq	%r15
  400cfe: 31 2e                        	xorl	%ebp, (%rsi)
  400d00: 33 00                        	xorl	(%rax), %eax
  400d02: 47 4c                        	<unknown>
  400d04: 49 42                        	<unknown>
  400d06: 43 58                        	popq	%r8
  400d08: 58                           	popq	%rax
  400d09: 5f                           	popq	%rdi
  400d0a: 33 2e                        	xorl	(%rsi), %ebp
  400d0c: 34 2e                        	xorb	$46, %al
  400d0e: 32 31                        	xorb	(%rcx), %dh
  400d10: 00 47 4c                     	addb	%al, 76(%rdi)
  400d13: 49 42                        	<unknown>
  400d15: 43 58                        	popq	%r8
  400d17: 58                           	popq	%rax
  400d18: 5f                           	popq	%rdi
  400d19: 33 2e                        	xorl	(%rsi), %ebp
  400d1b: 34 00                        	xorb	$0, %al

0000000000400d1e <.gnu.version>:
  400d1e: 00 00                        	addb	%al, (%rax)
  400d20: 02 00                        	addb	(%rax), %al
  400d22: 02 00                        	addb	(%rax), %al
  400d24: 02 00                        	addb	(%rax), %al
  400d26: 02 00                        	addb	(%rax), %al
  400d28: 03 00                        	addl	(%rax), %eax
  400d2a: 02 00                        	addb	(%rax), %al
  400d2c: 02 00                        	addb	(%rax), %al
  400d2e: 03 00                        	addl	(%rax), %eax
  400d30: 02 00                        	addb	(%rax), %al
  400d32: 04 00                        	addb	$0, %al
  400d34: 05 00 06 00 02               	addl	$33555968, %eax         # imm = 0x2000600
  400d39: 00 02                        	addb	%al, (%rdx)
  400d3b: 00 07                        	addb	%al, (%rdi)
  400d3d: 00 02                        	addb	%al, (%rdx)
  400d3f: 00 02                        	addb	%al, (%rdx)
  400d41: 00 08                        	addb	%cl, (%rax)
  400d43: 00 05 00 03 00 04            	addb	%al, 67109632(%rip)     # 0x4401049 <_ZSt3cin+0x3ff8de9>
  400d49: 00 03                        	addb	%al, (%rbx)
  400d4b: 00 02                        	addb	%al, (%rdx)
  400d4d: 00 03                        	addb	%al, (%rbx)
  400d4f: 00 06                        	addb	%al, (%rsi)
  400d51: 00 02                        	addb	%al, (%rdx)
  400d53: 00 02                        	addb	%al, (%rdx)
  400d55: 00 05 00 04 00 03            	addb	%al, 50332672(%rip)     # 0x340115b <_ZSt3cin+0x2ff8efb>
  400d5b: 00 02                        	addb	%al, (%rdx)
  400d5d: 00 09                        	addb	%cl, (%rcx)
  400d5f: 00 02                        	addb	%al, (%rdx)
  400d61: 00 02                        	addb	%al, (%rdx)
  400d63: 00 05 00 00 00 02            	addb	%al, 33554432(%rip)     # 0x2400d69 <_ZSt3cin+0x1ff8b09>
  400d69: 00 02                        	addb	%al, (%rdx)
  400d6b: 00 02                        	addb	%al, (%rdx)
  400d6d: 00                           	<unknown>


0000000000400d70 <.gnu.version_r>:
  400d70: 01 00                        	addl	%eax, (%rax)
  400d72: 01 00                        	addl	%eax, (%rax)
  400d74: d5                           	<unknown>
  400d75: 04 00                        	addb	$0, %al
  400d77: 00 10                        	addb	%dl, (%rax)
  400d79: 00 00                        	addb	%al, (%rax)
  400d7b: 00 20                        	addb	%ah, (%rax)
  400d7d: 00 00                        	addb	%al, (%rax)
  400d7f: 00 50 26                     	addb	%dl, 38(%rax)
  400d82: 79 0b                        	jns	0x400d8f <.gnu.version_r+0x1f>
  400d84: 00 00                        	addb	%al, (%rax)
  400d86: 09 00                        	orl	%eax, (%rax)
  400d88: 35 05 00 00 00               	xorl	$5, %eax
  400d8d: 00 00                        	addb	%al, (%rax)
  400d8f: 00 01                        	addb	%al, (%rcx)
  400d91: 00 02                        	addb	%al, (%rdx)
  400d93: 00 f2                        	addb	%dh, %dl
  400d95: 04 00                        	addb	$0, %al
  400d97: 00 10                        	addb	%dl, (%rax)
  400d99: 00 00                        	addb	%al, (%rax)
  400d9b: 00 30                        	addb	%dh, (%rax)
  400d9d: 00 00                        	addb	%al, (%rax)
  400d9f: 00 14 69                     	addb	%dl, (%rcx,%rbp,2)
  400da2: 69 0d 00 00 08 00 3d 05 00 00	imull	$1341, 524288(%rip), %ecx # imm = 0x53D
                                                                        # 0x480dac <_ZSt3cin+0x78b4c>
  400dac: 10 00                        	adcb	%al, (%rax)
  400dae: 00 00                        	addb	%al, (%rax)
  400db0: 75 1a                        	jne	0x400dcc <.gnu.version_r+0x5c>
  400db2: 69 09 00 00 05 00            	imull	$327680, (%rcx), %ecx   # imm = 0x50000
  400db8: 47 05 00 00 00 00            	addl	$0, %eax
  400dbe: 00 00                        	addb	%al, (%rax)
  400dc0: 01 00                        	addl	%eax, (%rax)
  400dc2: 05 00 01 00 00               	addl	$256, %eax              # imm = 0x100
  400dc7: 00 10                        	addb	%dl, (%rax)
  400dc9: 00 00                        	addb	%al, (%rax)
  400dcb: 00 00                        	addb	%al, (%rax)
  400dcd: 00 00                        	addb	%al, (%rax)
  400dcf: 00 79 d1                     	addb	%bh, -47(%rcx)
  400dd2: af                           	scasl	%es:(%rdi), %eax
  400dd3: 0b 00                        	orl	(%rax), %eax
  400dd5: 00 07                        	addb	%al, (%rdi)
  400dd7: 00 53 05                     	addb	%dl, 5(%rbx)
  400dda: 00 00                        	addb	%al, (%rax)
  400ddc: 10 00                        	adcb	%al, (%rax)
  400dde: 00 00                        	addb	%al, (%rax)
  400de0: 68 f8 97 02 00               	pushq	$169976                 # imm = 0x297F8
  400de5: 00 06                        	addb	%al, (%rsi)
  400de7: 00 60 05                     	addb	%ah, 5(%rax)
  400dea: 00 00                        	addb	%al, (%rax)
  400dec: 10 00                        	adcb	%al, (%rax)
  400dee: 00 00                        	addb	%al, (%rax)
  400df0: d3 af 6b 05 00 00            	shrl	%cl, 1387(%rdi)
  400df6: 04 00                        	addb	$0, %al
  400df8: 6f                           	outsl	(%rsi), %dx
  400df9: 05 00 00 10 00               	addl	$1048576, %eax          # imm = 0x100000
  400dfe: 00 00                        	addb	%al, (%rax)
  400e00: 71 f8                        	jno	0x400dfa <.gnu.version_r+0x8a>
  400e02: 97                           	xchgl	%edi, %eax
  400e03: 02 00                        	addb	(%rax), %al
  400e05: 00 03                        	addb	%al, (%rbx)
  400e07: 00 7a 05                     	addb	%bh, 5(%rdx)
  400e0a: 00 00                        	addb	%al, (%rax)
  400e0c: 10 00                        	adcb	%al, (%rax)
  400e0e: 00 00                        	addb	%al, (%rax)
  400e10: 74 29                        	je	0x400e3b
  400e12: 92                           	xchgl	%edx, %eax
  400e13: 08 00                        	orb	%al, (%rax)
  400e15: 00 02                        	addb	%al, (%rdx)
  400e17: 00 89 05 00 00 00            	addb	%cl, 5(%rcx)
  400e1d: 00 00                        	addb	%al, (%rax)
  400e1f: 00                           	<unknown>

0000000000400e20 <.rela.dyn>:
  400e20: b0 7d                        	movb	$125, %al
  400e22: 40 00 00                     	addb	%al, (%rax)
  400e25: 00 00                        	addb	%al, (%rax)
  400e27: 00 01                        	addb	%al, (%rcx)
  400e29: 00 00                        	addb	%al, (%rax)
  400e2b: 00 0a                        	addb	%cl, (%rdx)
  400e2d: 00 00                        	addb	%al, (%rax)
  400e2f: 00 10                        	addb	%dl, (%rax)
  400e31: 00 00                        	addb	%al, (%rax)
  400e33: 00 00                        	addb	%al, (%rax)
  400e35: 00 00                        	addb	%al, (%rax)
  400e37: 00 c0                        	addb	%al, %al
  400e39: 7d 40                        	jge	0x400e7b <.rela.dyn+0x5b>
  400e3b: 00 00                        	addb	%al, (%rax)
  400e3d: 00 00                        	addb	%al, (%rax)
  400e3f: 00 01                        	addb	%al, (%rcx)
  400e41: 00 00                        	addb	%al, (%rax)
  400e43: 00 15 00 00 00 10            	addb	%dl, 268435456(%rip)    # 0x10400e49 <_ZSt3cin+0xfff8be9>
  400e49: 00 00                        	addb	%al, (%rax)
  400e4b: 00 00                        	addb	%al, (%rax)
  400e4d: 00 00                        	addb	%al, (%rax)
  400e4f: 00 d8                        	addb	%bl, %al
  400e51: 7d 40                        	jge	0x400e93 <.rela.dyn+0x73>
  400e53: 00 00                        	addb	%al, (%rax)
  400e55: 00 00                        	addb	%al, (%rax)
  400e57: 00 01                        	addb	%al, (%rcx)
  400e59: 00 00                        	addb	%al, (%rax)
  400e5b: 00 15 00 00 00 10            	addb	%dl, 268435456(%rip)    # 0x10400e61 <_ZSt3cin+0xfff8c01>
  400e61: 00 00                        	addb	%al, (%rax)
  400e63: 00 00                        	addb	%al, (%rax)
  400e65: 00 00                        	addb	%al, (%rax)
  400e67: 00 e0                        	addb	%ah, %al
  400e69: 7f 40                        	jg	0x400eab <.rela.dyn+0x8b>
  400e6b: 00 00                        	addb	%al, (%rax)
  400e6d: 00 00                        	addb	%al, (%rax)
  400e6f: 00 06                        	addb	%al, (%rsi)
  400e71: 00 00                        	addb	%al, (%rax)
  400e73: 00 06                        	addb	%al, (%rsi)
		...
  400e7d: 00 00                        	addb	%al, (%rax)
  400e7f: 00 e8                        	addb	%ch, %al
  400e81: 7f 40                        	jg	0x400ec3 <.rela.dyn+0xa3>
  400e83: 00 00                        	addb	%al, (%rax)
  400e85: 00 00                        	addb	%al, (%rax)
  400e87: 00 06                        	addb	%al, (%rsi)
  400e89: 00 00                        	addb	%al, (%rax)
  400e8b: 00 23                        	addb	%ah, (%rbx)
		...
  400e95: 00 00                        	addb	%al, (%rax)
  400e97: 00 f0                        	addb	%dh, %al
  400e99: 7f 40                        	jg	0x400edb <.rela.dyn+0xbb>
  400e9b: 00 00                        	addb	%al, (%rax)
  400e9d: 00 00                        	addb	%al, (%rax)
  400e9f: 00 06                        	addb	%al, (%rsi)
  400ea1: 00 00                        	addb	%al, (%rax)
  400ea3: 00 24 00                     	addb	%ah, (%rax,%rax)
		...
  400eae: 00 00                        	addb	%al, (%rax)
  400eb0: f8                           	clc
  400eb1: 7f 40                        	jg	0x400ef3 <.rela.dyn+0xd3>
  400eb3: 00 00                        	addb	%al, (%rax)
  400eb5: 00 00                        	addb	%al, (%rax)
  400eb7: 00 06                        	addb	%al, (%rsi)
  400eb9: 00 00                        	addb	%al, (%rax)
  400ebb: 00 25 00 00 00 00            	addb	%ah, (%rip)             # 0x400ec1 <.rela.dyn+0xa1>
  400ec1: 00 00                        	addb	%al, (%rax)
  400ec3: 00 00                        	addb	%al, (%rax)
  400ec5: 00 00                        	addb	%al, (%rax)
  400ec7: 00 18                        	addb	%bl, (%rax)
  400ec9: 81 40 00 00 00 00 00         	addl	$0, (%rax)
  400ed0: 01 00                        	addl	%eax, (%rax)
  400ed2: 00 00                        	addb	%al, (%rax)
  400ed4: 1d 00 00 00 00               	sbbl	$0, %eax
  400ed9: 00 00                        	addb	%al, (%rax)
  400edb: 00 00                        	addb	%al, (%rax)
  400edd: 00 00                        	addb	%al, (%rax)
  400edf: 00 40 81                     	addb	%al, -127(%rax)
  400ee2: 40 00 00                     	addb	%al, (%rax)
  400ee5: 00 00                        	addb	%al, (%rax)
  400ee7: 00 05 00 00 00 26            	addb	%al, 637534208(%rip)    # 0x26400eed <_ZSt3cin+0x25ff8c8d>
		...
  400ef5: 00 00                        	addb	%al, (%rax)
  400ef7: 00 60 82                     	addb	%ah, -126(%rax)
  400efa: 40 00 00                     	addb	%al, (%rax)
  400efd: 00 00                        	addb	%al, (%rax)
  400eff: 00 05 00 00 00 27            	addb	%al, 654311424(%rip)    # 0x27400f05 <_ZSt3cin+0x26ff8ca5>
		...
  400f0d: 00 00                        	addb	%al, (%rax)
  400f0f: 00                           	<unknown>

Disassembly of section .rela.plt:

0000000000400f10 <.rela.plt>:
  400f10: 18 80 40 00 00 00            	sbbb	%al, 64(%rax)
  400f16: 00 00                        	addb	%al, (%rax)
  400f18: 07                           	<unknown>
  400f19: 00 00                        	addb	%al, (%rax)
  400f1b: 00 01                        	addb	%al, (%rcx)
		...
  400f25: 00 00                        	addb	%al, (%rax)
  400f27: 00 20                        	addb	%ah, (%rax)
  400f29: 80 40 00 00                  	addb	$0, (%rax)
  400f2d: 00 00                        	addb	%al, (%rax)
  400f2f: 00 07                        	addb	%al, (%rdi)
  400f31: 00 00                        	addb	%al, (%rax)
  400f33: 00 02                        	addb	%al, (%rdx)
		...
  400f3d: 00 00                        	addb	%al, (%rax)
  400f3f: 00 28                        	addb	%ch, (%rax)
  400f41: 80 40 00 00                  	addb	$0, (%rax)
  400f45: 00 00                        	addb	%al, (%rax)
  400f47: 00 07                        	addb	%al, (%rdi)
  400f49: 00 00                        	addb	%al, (%rax)
  400f4b: 00 03                        	addb	%al, (%rbx)
		...
  400f55: 00 00                        	addb	%al, (%rax)
  400f57: 00 30                        	addb	%dh, (%rax)
  400f59: 80 40 00 00                  	addb	$0, (%rax)
  400f5d: 00 00                        	addb	%al, (%rax)
  400f5f: 00 07                        	addb	%al, (%rdi)
  400f61: 00 00                        	addb	%al, (%rax)
  400f63: 00 04 00                     	addb	%al, (%rax,%rax)
		...
  400f6e: 00 00                        	addb	%al, (%rax)
  400f70: 38 80 40 00 00 00            	cmpb	%al, 64(%rax)
  400f76: 00 00                        	addb	%al, (%rax)
  400f78: 07                           	<unknown>
  400f79: 00 00                        	addb	%al, (%rax)
  400f7b: 00 05 00 00 00 00            	addb	%al, (%rip)             # 0x400f81 <.rela.plt+0x71>
  400f81: 00 00                        	addb	%al, (%rax)
  400f83: 00 00                        	addb	%al, (%rax)
  400f85: 00 00                        	addb	%al, (%rax)
  400f87: 00 40 80                     	addb	%al, -128(%rax)
  400f8a: 40 00 00                     	addb	%al, (%rax)
  400f8d: 00 00                        	addb	%al, (%rax)
  400f8f: 00 07                        	addb	%al, (%rdi)
  400f91: 00 00                        	addb	%al, (%rax)
  400f93: 00 07                        	addb	%al, (%rdi)
		...
  400f9d: 00 00                        	addb	%al, (%rax)
  400f9f: 00 48 80                     	addb	%cl, -128(%rax)
  400fa2: 40 00 00                     	addb	%al, (%rax)
  400fa5: 00 00                        	addb	%al, (%rax)
  400fa7: 00 07                        	addb	%al, (%rdi)
  400fa9: 00 00                        	addb	%al, (%rax)
  400fab: 00 08                        	addb	%cl, (%rax)
		...
  400fb5: 00 00                        	addb	%al, (%rax)
  400fb7: 00 50 80                     	addb	%dl, -128(%rax)
  400fba: 40 00 00                     	addb	%al, (%rax)
  400fbd: 00 00                        	addb	%al, (%rax)
  400fbf: 00 07                        	addb	%al, (%rdi)
  400fc1: 00 00                        	addb	%al, (%rax)
  400fc3: 00 09                        	addb	%cl, (%rcx)
		...
  400fcd: 00 00                        	addb	%al, (%rax)
  400fcf: 00 58 80                     	addb	%bl, -128(%rax)
  400fd2: 40 00 00                     	addb	%al, (%rax)
  400fd5: 00 00                        	addb	%al, (%rax)
  400fd7: 00 07                        	addb	%al, (%rdi)
  400fd9: 00 00                        	addb	%al, (%rax)
  400fdb: 00 0b                        	addb	%cl, (%rbx)
		...
  400fe5: 00 00                        	addb	%al, (%rax)
  400fe7: 00 60 80                     	addb	%ah, -128(%rax)
  400fea: 40 00 00                     	addb	%al, (%rax)
  400fed: 00 00                        	addb	%al, (%rax)
  400fef: 00 07                        	addb	%al, (%rdi)
  400ff1: 00 00                        	addb	%al, (%rax)
  400ff3: 00 0c 00                     	addb	%cl, (%rax,%rax)
		...
  400ffe: 00 00                        	addb	%al, (%rax)
  401000: 68 80 40 00 00               	pushq	$16512                  # imm = 0x4080
  401005: 00 00                        	addb	%al, (%rax)
  401007: 00 07                        	addb	%al, (%rdi)
  401009: 00 00                        	addb	%al, (%rax)
  40100b: 00 0d 00 00 00 00            	addb	%cl, (%rip)             # 0x401011 <.rela.plt+0x101>
  401011: 00 00                        	addb	%al, (%rax)
  401013: 00 00                        	addb	%al, (%rax)
  401015: 00 00                        	addb	%al, (%rax)
  401017: 00 70 80                     	addb	%dh, -128(%rax)
  40101a: 40 00 00                     	addb	%al, (%rax)
  40101d: 00 00                        	addb	%al, (%rax)
  40101f: 00 07                        	addb	%al, (%rdi)
  401021: 00 00                        	addb	%al, (%rax)
  401023: 00 0e                        	addb	%cl, (%rsi)
		...
  40102d: 00 00                        	addb	%al, (%rax)
  40102f: 00 78 80                     	addb	%bh, -128(%rax)
  401032: 40 00 00                     	addb	%al, (%rax)
  401035: 00 00                        	addb	%al, (%rax)
  401037: 00 07                        	addb	%al, (%rdi)
  401039: 00 00                        	addb	%al, (%rax)
  40103b: 00 0f                        	addb	%cl, (%rdi)
		...
  401045: 00 00                        	addb	%al, (%rax)
  401047: 00 80 80 40 00 00            	addb	%al, 16512(%rax)
  40104d: 00 00                        	addb	%al, (%rax)
  40104f: 00 07                        	addb	%al, (%rdi)
  401051: 00 00                        	addb	%al, (%rax)
  401053: 00 10                        	addb	%dl, (%rax)
		...
  40105d: 00 00                        	addb	%al, (%rax)
  40105f: 00 88 80 40 00 00            	addb	%cl, 16512(%rax)
  401065: 00 00                        	addb	%al, (%rax)
  401067: 00 07                        	addb	%al, (%rdi)
  401069: 00 00                        	addb	%al, (%rax)
  40106b: 00 11                        	addb	%dl, (%rcx)
		...
  401075: 00 00                        	addb	%al, (%rax)
  401077: 00 90 80 40 00 00            	addb	%dl, 16512(%rax)
  40107d: 00 00                        	addb	%al, (%rax)
  40107f: 00 07                        	addb	%al, (%rdi)
  401081: 00 00                        	addb	%al, (%rax)
  401083: 00 12                        	addb	%dl, (%rdx)
		...
  40108d: 00 00                        	addb	%al, (%rax)
  40108f: 00 98 80 40 00 00            	addb	%bl, 16512(%rax)
  401095: 00 00                        	addb	%al, (%rax)
  401097: 00 07                        	addb	%al, (%rdi)
  401099: 00 00                        	addb	%al, (%rax)
  40109b: 00 13                        	addb	%dl, (%rbx)
		...
  4010a5: 00 00                        	addb	%al, (%rax)
  4010a7: 00 a0 80 40 00 00            	addb	%ah, 16512(%rax)
  4010ad: 00 00                        	addb	%al, (%rax)
  4010af: 00 07                        	addb	%al, (%rdi)
  4010b1: 00 00                        	addb	%al, (%rax)
  4010b3: 00 14 00                     	addb	%dl, (%rax,%rax)
		...
  4010be: 00 00                        	addb	%al, (%rax)
  4010c0: a8 80                        	testb	$-128, %al
  4010c2: 40 00 00                     	addb	%al, (%rax)
  4010c5: 00 00                        	addb	%al, (%rax)
  4010c7: 00 07                        	addb	%al, (%rdi)
  4010c9: 00 00                        	addb	%al, (%rax)
  4010cb: 00 16                        	addb	%dl, (%rsi)
		...
  4010d5: 00 00                        	addb	%al, (%rax)
  4010d7: 00 b0 80 40 00 00            	addb	%dh, 16512(%rax)
  4010dd: 00 00                        	addb	%al, (%rax)
  4010df: 00 07                        	addb	%al, (%rdi)
  4010e1: 00 00                        	addb	%al, (%rax)
  4010e3: 00 17                        	addb	%dl, (%rdi)
		...
  4010ed: 00 00                        	addb	%al, (%rax)
  4010ef: 00 b8 80 40 00 00            	addb	%bh, 16512(%rax)
  4010f5: 00 00                        	addb	%al, (%rax)
  4010f7: 00 07                        	addb	%al, (%rdi)
  4010f9: 00 00                        	addb	%al, (%rax)
  4010fb: 00 18                        	addb	%bl, (%rax)
		...
  401105: 00 00                        	addb	%al, (%rax)
  401107: 00 c0                        	addb	%al, %al
  401109: 80 40 00 00                  	addb	$0, (%rax)
  40110d: 00 00                        	addb	%al, (%rax)
  40110f: 00 07                        	addb	%al, (%rdi)
  401111: 00 00                        	addb	%al, (%rax)
  401113: 00 19                        	addb	%bl, (%rcx)
		...
  40111d: 00 00                        	addb	%al, (%rax)
  40111f: 00 c8                        	addb	%cl, %al
  401121: 80 40 00 00                  	addb	$0, (%rax)
  401125: 00 00                        	addb	%al, (%rax)
  401127: 00 07                        	addb	%al, (%rdi)
  401129: 00 00                        	addb	%al, (%rax)
  40112b: 00 1a                        	addb	%bl, (%rdx)
		...
  401135: 00 00                        	addb	%al, (%rax)
  401137: 00 d0                        	addb	%dl, %al
  401139: 80 40 00 00                  	addb	$0, (%rax)
  40113d: 00 00                        	addb	%al, (%rax)
  40113f: 00 07                        	addb	%al, (%rdi)
  401141: 00 00                        	addb	%al, (%rax)
  401143: 00 1b                        	addb	%bl, (%rbx)
		...
  40114d: 00 00                        	addb	%al, (%rax)
  40114f: 00 d8                        	addb	%bl, %al
  401151: 80 40 00 00                  	addb	$0, (%rax)
  401155: 00 00                        	addb	%al, (%rax)
  401157: 00 07                        	addb	%al, (%rdi)
  401159: 00 00                        	addb	%al, (%rax)
  40115b: 00 1c 00                     	addb	%bl, (%rax,%rax)
		...
  401166: 00 00                        	addb	%al, (%rax)
  401168: e0 80                        	loopne	0x4010ea <.rela.plt+0x1da>
  40116a: 40 00 00                     	addb	%al, (%rax)
  40116d: 00 00                        	addb	%al, (%rax)
  40116f: 00 07                        	addb	%al, (%rdi)
  401171: 00 00                        	addb	%al, (%rax)
  401173: 00 1e                        	addb	%bl, (%rsi)
		...
  40117d: 00 00                        	addb	%al, (%rax)
  40117f: 00 e8                        	addb	%ch, %al
  401181: 80 40 00 00                  	addb	$0, (%rax)
  401185: 00 00                        	addb	%al, (%rax)
  401187: 00 07                        	addb	%al, (%rdi)
  401189: 00 00                        	addb	%al, (%rax)
  40118b: 00 1f                        	addb	%bl, (%rdi)
		...
  401195: 00 00                        	addb	%al, (%rax)
  401197: 00 f0                        	addb	%dh, %al
  401199: 80 40 00 00                  	addb	$0, (%rax)
  40119d: 00 00                        	addb	%al, (%rax)
  40119f: 00 07                        	addb	%al, (%rdi)
  4011a1: 00 00                        	addb	%al, (%rax)
  4011a3: 00 20                        	addb	%ah, (%rax)
		...
  4011ad: 00 00                        	addb	%al, (%rax)
  4011af: 00 f8                        	addb	%bh, %al
  4011b1: 80 40 00 00                  	addb	$0, (%rax)
  4011b5: 00 00                        	addb	%al, (%rax)
  4011b7: 00 07                        	addb	%al, (%rdi)
  4011b9: 00 00                        	addb	%al, (%rax)
  4011bb: 00 21                        	addb	%ah, (%rcx)
		...
  4011c9: 81 40 00 00 00 00 00         	addl	$0, (%rax)
  4011d0: 07                           	<unknown>
  4011d1: 00 00                        	addb	%al, (%rax)
  4011d3: 00 22                        	addb	%ah, (%rdx)
		...
  4011dd: 00 00                        	addb	%al, (%rax)
  4011df: 00                           	<unknown>


0000000000402000 <.init>:
  402000: f3 0f 1e fa                  	endbr64
  402004: 48 83 ec 08                  	subq	$8, %rsp
  402008: 48 8b 05 e1 5f 00 00         	movq	24545(%rip), %rax       # 0x407ff0
  40200f: 48 85 c0                     	testq	%rax, %rax
  402012: 74 02                        	je	0x402016 <.init+0x16>
  402014: ff d0                        	callq	*%rax
  402016: 48 83 c4 08                  	addq	$8, %rsp
  40201a: c3                           	retq

Disassembly of section .plt:

0000000000402020 <.plt>:
  402020: ff 35 e2 5f 00 00            	pushq	24546(%rip)             # 0x408008
  402026: f2 ff 25 e3 5f 00 00         	repne		jmpq	*24547(%rip)    # 0x408010
  40202d: 0f 1f 00                     	nopl	(%rax)
  402030: f3 0f 1e fa                  	endbr64
  402034: 68 00 00 00 00               	pushq	$0
  402039: f2 e9 e1 ff ff ff            	repne		jmp	0x402020 <.plt>
  40203f: 90                           	nop
  402040: f3 0f 1e fa                  	endbr64
  402044: 68 01 00 00 00               	pushq	$1
  402049: f2 e9 d1 ff ff ff            	repne		jmp	0x402020 <.plt>
  40204f: 90                           	nop
  402050: f3 0f 1e fa                  	endbr64
  402054: 68 02 00 00 00               	pushq	$2
  402059: f2 e9 c1 ff ff ff            	repne		jmp	0x402020 <.plt>
  40205f: 90                           	nop
  402060: f3 0f 1e fa                  	endbr64
  402064: 68 03 00 00 00               	pushq	$3
  402069: f2 e9 b1 ff ff ff            	repne		jmp	0x402020 <.plt>
  40206f: 90                           	nop
  402070: f3 0f 1e fa                  	endbr64
  402074: 68 04 00 00 00               	pushq	$4
  402079: f2 e9 a1 ff ff ff            	repne		jmp	0x402020 <.plt>
  40207f: 90                           	nop
  402080: f3 0f 1e fa                  	endbr64
  402084: 68 05 00 00 00               	pushq	$5
  402089: f2 e9 91 ff ff ff            	repne		jmp	0x402020 <.plt>
  40208f: 90                           	nop
  402090: f3 0f 1e fa                  	endbr64
  402094: 68 06 00 00 00               	pushq	$6
  402099: f2 e9 81 ff ff ff            	repne		jmp	0x402020 <.plt>
  40209f: 90                           	nop
  4020a0: f3 0f 1e fa                  	endbr64
  4020a4: 68 07 00 00 00               	pushq	$7
  4020a9: f2 e9 71 ff ff ff            	repne		jmp	0x402020 <.plt>
  4020af: 90                           	nop
  4020b0: f3 0f 1e fa                  	endbr64
  4020b4: 68 08 00 00 00               	pushq	$8
  4020b9: f2 e9 61 ff ff ff            	repne		jmp	0x402020 <.plt>
  4020bf: 90                           	nop
  4020c0: f3 0f 1e fa                  	endbr64
  4020c4: 68 09 00 00 00               	pushq	$9
  4020c9: f2 e9 51 ff ff ff            	repne		jmp	0x402020 <.plt>
  4020cf: 90                           	nop
  4020d0: f3 0f 1e fa                  	endbr64
  4020d4: 68 0a 00 00 00               	pushq	$10
  4020d9: f2 e9 41 ff ff ff            	repne		jmp	0x402020 <.plt>
  4020df: 90                           	nop
  4020e0: f3 0f 1e fa                  	endbr64
  4020e4: 68 0b 00 00 00               	pushq	$11
  4020e9: f2 e9 31 ff ff ff            	repne		jmp	0x402020 <.plt>
  4020ef: 90                           	nop
  4020f0: f3 0f 1e fa                  	endbr64
  4020f4: 68 0c 00 00 00               	pushq	$12
  4020f9: f2 e9 21 ff ff ff            	repne		jmp	0x402020 <.plt>
  4020ff: 90                           	nop
  402100: f3 0f 1e fa                  	endbr64
  402104: 68 0d 00 00 00               	pushq	$13
  402109: f2 e9 11 ff ff ff            	repne		jmp	0x402020 <.plt>
  40210f: 90                           	nop
  402110: f3 0f 1e fa                  	endbr64
  402114: 68 0e 00 00 00               	pushq	$14
  402119: f2 e9 01 ff ff ff            	repne		jmp	0x402020 <.plt>
  40211f: 90                           	nop
  402120: f3 0f 1e fa                  	endbr64
  402124: 68 0f 00 00 00               	pushq	$15
  402129: f2 e9 f1 fe ff ff            	repne		jmp	0x402020 <.plt>
  40212f: 90                           	nop
  402130: f3 0f 1e fa                  	endbr64
  402134: 68 10 00 00 00               	pushq	$16
  402139: f2 e9 e1 fe ff ff            	repne		jmp	0x402020 <.plt>
  40213f: 90                           	nop
  402140: f3 0f 1e fa                  	endbr64
  402144: 68 11 00 00 00               	pushq	$17
  402149: f2 e9 d1 fe ff ff            	repne		jmp	0x402020 <.plt>
  40214f: 90                           	nop
  402150: f3 0f 1e fa                  	endbr64
  402154: 68 12 00 00 00               	pushq	$18
  402159: f2 e9 c1 fe ff ff            	repne		jmp	0x402020 <.plt>
  40215f: 90                           	nop
  402160: f3 0f 1e fa                  	endbr64
  402164: 68 13 00 00 00               	pushq	$19
  402169: f2 e9 b1 fe ff ff            	repne		jmp	0x402020 <.plt>
  40216f: 90                           	nop
  402170: f3 0f 1e fa                  	endbr64
  402174: 68 14 00 00 00               	pushq	$20
  402179: f2 e9 a1 fe ff ff            	repne		jmp	0x402020 <.plt>
  40217f: 90                           	nop
  402180: f3 0f 1e fa                  	endbr64
  402184: 68 15 00 00 00               	pushq	$21
  402189: f2 e9 91 fe ff ff            	repne		jmp	0x402020 <.plt>
  40218f: 90                           	nop
  402190: f3 0f 1e fa                  	endbr64
  402194: 68 16 00 00 00               	pushq	$22
  402199: f2 e9 81 fe ff ff            	repne		jmp	0x402020 <.plt>
  40219f: 90                           	nop
  4021a0: f3 0f 1e fa                  	endbr64
  4021a4: 68 17 00 00 00               	pushq	$23
  4021a9: f2 e9 71 fe ff ff            	repne		jmp	0x402020 <.plt>
  4021af: 90                           	nop
  4021b0: f3 0f 1e fa                  	endbr64
  4021b4: 68 18 00 00 00               	pushq	$24
  4021b9: f2 e9 61 fe ff ff            	repne		jmp	0x402020 <.plt>
  4021bf: 90                           	nop
  4021c0: f3 0f 1e fa                  	endbr64
  4021c4: 68 19 00 00 00               	pushq	$25
  4021c9: f2 e9 51 fe ff ff            	repne		jmp	0x402020 <.plt>
  4021cf: 90                           	nop
  4021d0: f3 0f 1e fa                  	endbr64
  4021d4: 68 1a 00 00 00               	pushq	$26
  4021d9: f2 e9 41 fe ff ff            	repne		jmp	0x402020 <.plt>
  4021df: 90                           	nop
  4021e0: f3 0f 1e fa                  	endbr64
  4021e4: 68 1b 00 00 00               	pushq	$27
  4021e9: f2 e9 31 fe ff ff            	repne		jmp	0x402020 <.plt>
  4021ef: 90                           	nop
  4021f0: f3 0f 1e fa                  	endbr64
  4021f4: 68 1c 00 00 00               	pushq	$28
  4021f9: f2 e9 21 fe ff ff            	repne		jmp	0x402020 <.plt>
  4021ff: 90                           	nop
  402200: f3 0f 1e fa                  	endbr64
  402204: 68 1d 00 00 00               	pushq	$29
  402209: f2 e9 11 fe ff ff            	repne		jmp	0x402020 <.plt>
  40220f: 90                           	nop


0000000000402210 <.plt.sec>:
  402210: f3 0f 1e fa                  	endbr64
  402214: f2 ff 25 fd 5d 00 00         	repne		jmpq	*24061(%rip)    # 0x408018
  40221b: 0f 1f 44 00 00               	nopl	(%rax,%rax)
  402220: f3 0f 1e fa                  	endbr64
  402224: f2 ff 25 f5 5d 00 00         	repne		jmpq	*24053(%rip)    # 0x408020
  40222b: 0f 1f 44 00 00               	nopl	(%rax,%rax)
  402230: f3 0f 1e fa                  	endbr64
  402234: f2 ff 25 ed 5d 00 00         	repne		jmpq	*24045(%rip)    # 0x408028
  40223b: 0f 1f 44 00 00               	nopl	(%rax,%rax)
  402240: f3 0f 1e fa                  	endbr64
  402244: f2 ff 25 e5 5d 00 00         	repne		jmpq	*24037(%rip)    # 0x408030
  40224b: 0f 1f 44 00 00               	nopl	(%rax,%rax)
  402250: f3 0f 1e fa                  	endbr64
  402254: f2 ff 25 dd 5d 00 00         	repne		jmpq	*24029(%rip)    # 0x408038
  40225b: 0f 1f 44 00 00               	nopl	(%rax,%rax)
  402260: f3 0f 1e fa                  	endbr64
  402264: f2 ff 25 d5 5d 00 00         	repne		jmpq	*24021(%rip)    # 0x408040
  40226b: 0f 1f 44 00 00               	nopl	(%rax,%rax)
  402270: f3 0f 1e fa                  	endbr64
  402274: f2 ff 25 cd 5d 00 00         	repne		jmpq	*24013(%rip)    # 0x408048
  40227b: 0f 1f 44 00 00               	nopl	(%rax,%rax)
  402280: f3 0f 1e fa                  	endbr64
  402284: f2 ff 25 c5 5d 00 00         	repne		jmpq	*24005(%rip)    # 0x408050
  40228b: 0f 1f 44 00 00               	nopl	(%rax,%rax)
  402290: f3 0f 1e fa                  	endbr64
  402294: f2 ff 25 bd 5d 00 00         	repne		jmpq	*23997(%rip)    # 0x408058
  40229b: 0f 1f 44 00 00               	nopl	(%rax,%rax)
  4022a0: f3 0f 1e fa                  	endbr64
  4022a4: f2 ff 25 b5 5d 00 00         	repne		jmpq	*23989(%rip)    # 0x408060
  4022ab: 0f 1f 44 00 00               	nopl	(%rax,%rax)
  4022b0: f3 0f 1e fa                  	endbr64
  4022b4: f2 ff 25 ad 5d 00 00         	repne		jmpq	*23981(%rip)    # 0x408068
  4022bb: 0f 1f 44 00 00               	nopl	(%rax,%rax)
  4022c0: f3 0f 1e fa                  	endbr64
  4022c4: f2 ff 25 a5 5d 00 00         	repne		jmpq	*23973(%rip)    # 0x408070
  4022cb: 0f 1f 44 00 00               	nopl	(%rax,%rax)
  4022d0: f3 0f 1e fa                  	endbr64
  4022d4: f2 ff 25 9d 5d 00 00         	repne		jmpq	*23965(%rip)    # 0x408078
  4022db: 0f 1f 44 00 00               	nopl	(%rax,%rax)
  4022e0: f3 0f 1e fa                  	endbr64
  4022e4: f2 ff 25 95 5d 00 00         	repne		jmpq	*23957(%rip)    # 0x408080
  4022eb: 0f 1f 44 00 00               	nopl	(%rax,%rax)
  4022f0: f3 0f 1e fa                  	endbr64
  4022f4: f2 ff 25 8d 5d 00 00         	repne		jmpq	*23949(%rip)    # 0x408088
  4022fb: 0f 1f 44 00 00               	nopl	(%rax,%rax)
  402300: f3 0f 1e fa                  	endbr64
  402304: f2 ff 25 85 5d 00 00         	repne		jmpq	*23941(%rip)    # 0x408090
  40230b: 0f 1f 44 00 00               	nopl	(%rax,%rax)
  402310: f3 0f 1e fa                  	endbr64
  402314: f2 ff 25 7d 5d 00 00         	repne		jmpq	*23933(%rip)    # 0x408098
  40231b: 0f 1f 44 00 00               	nopl	(%rax,%rax)
  402320: f3 0f 1e fa                  	endbr64
  402324: f2 ff 25 75 5d 00 00         	repne		jmpq	*23925(%rip)    # 0x4080a0
  40232b: 0f 1f 44 00 00               	nopl	(%rax,%rax)
  402330: f3 0f 1e fa                  	endbr64
  402334: f2 ff 25 6d 5d 00 00         	repne		jmpq	*23917(%rip)    # 0x4080a8
  40233b: 0f 1f 44 00 00               	nopl	(%rax,%rax)
  402340: f3 0f 1e fa                  	endbr64
  402344: f2 ff 25 65 5d 00 00         	repne		jmpq	*23909(%rip)    # 0x4080b0
  40234b: 0f 1f 44 00 00               	nopl	(%rax,%rax)
  402350: f3 0f 1e fa                  	endbr64
  402354: f2 ff 25 5d 5d 00 00         	repne		jmpq	*23901(%rip)    # 0x4080b8
  40235b: 0f 1f 44 00 00               	nopl	(%rax,%rax)
  402360: f3 0f 1e fa                  	endbr64
  402364: f2 ff 25 55 5d 00 00         	repne		jmpq	*23893(%rip)    # 0x4080c0
  40236b: 0f 1f 44 00 00               	nopl	(%rax,%rax)
  402370: f3 0f 1e fa                  	endbr64
  402374: f2 ff 25 4d 5d 00 00         	repne		jmpq	*23885(%rip)    # 0x4080c8
  40237b: 0f 1f 44 00 00               	nopl	(%rax,%rax)
  402380: f3 0f 1e fa                  	endbr64
  402384: f2 ff 25 45 5d 00 00         	repne		jmpq	*23877(%rip)    # 0x4080d0
  40238b: 0f 1f 44 00 00               	nopl	(%rax,%rax)
  402390: f3 0f 1e fa                  	endbr64
  402394: f2 ff 25 3d 5d 00 00         	repne		jmpq	*23869(%rip)    # 0x4080d8
  40239b: 0f 1f 44 00 00               	nopl	(%rax,%rax)
  4023a0: f3 0f 1e fa                  	endbr64
  4023a4: f2 ff 25 35 5d 00 00         	repne		jmpq	*23861(%rip)    # 0x4080e0
  4023ab: 0f 1f 44 00 00               	nopl	(%rax,%rax)
  4023b0: f3 0f 1e fa                  	endbr64
  4023b4: f2 ff 25 2d 5d 00 00         	repne		jmpq	*23853(%rip)    # 0x4080e8
  4023bb: 0f 1f 44 00 00               	nopl	(%rax,%rax)
  4023c0: f3 0f 1e fa                  	endbr64
  4023c4: f2 ff 25 25 5d 00 00         	repne		jmpq	*23845(%rip)    # 0x4080f0
  4023cb: 0f 1f 44 00 00               	nopl	(%rax,%rax)
  4023d0: f3 0f 1e fa                  	endbr64
  4023d4: f2 ff 25 1d 5d 00 00         	repne		jmpq	*23837(%rip)    # 0x4080f8
  4023db: 0f 1f 44 00 00               	nopl	(%rax,%rax)
  4023e0: f3 0f 1e fa                  	endbr64
  4023e4: f2 ff 25 15 5d 00 00         	repne		jmpq	*23829(%rip)    # 0x408100
  4023eb: 0f 1f 44 00 00               	nopl	(%rax,%rax)


00000000004023f0 <.text>:
  4023f0: f3 0f 1e fa                  	endbr64
  4023f4: 31 ed                        	xorl	%ebp, %ebp
  4023f6: 49 89 d1                     	movq	%rdx, %r9
  4023f9: 5e                           	popq	%rsi
  4023fa: 48 89 e2                     	movq	%rsp, %rdx
  4023fd: 48 83 e4 f0                  	andq	$-16, %rsp
  402401: 50                           	pushq	%rax
  402402: 54                           	pushq	%rsp
  402403: 49 c7 c0 d0 3f 40 00         	movq	$4210640, %r8           # imm = 0x403FD0
  40240a: 48 c7 c1 60 3f 40 00         	movq	$4210528, %rcx          # imm = 0x403F60
  402411: 48 c7 c7 4c 3e 40 00         	movq	$4210252, %rdi          # imm = 0x403E4C
  402418: ff 15 ca 5b 00 00            	callq	*23498(%rip)            # 0x407fe8
  40241e: f4                           	hlt
  40241f: 90                           	nop
  402420: f3 0f 1e fa                  	endbr64
  402424: c3                           	retq
  402425: 66 2e 0f 1f 84 00 00 00 00 00	nopw	%cs:(%rax,%rax)
  40242f: 90                           	nop
  402430: b8 20 81 40 00               	movl	$4227360, %eax          # imm = 0x408120
  402435: 48 3d 20 81 40 00            	cmpq	$4227360, %rax          # imm = 0x408120
  40243b: 74 13                        	je	0x402450 <.text+0x60>
  40243d: b8 00 00 00 00               	movl	$0, %eax
  402442: 48 85 c0                     	testq	%rax, %rax
  402445: 74 09                        	je	0x402450 <.text+0x60>
  402447: bf 20 81 40 00               	movl	$4227360, %edi          # imm = 0x408120
  40244c: ff e0                        	jmpq	*%rax
  40244e: 66 90                        	nop
  402450: c3                           	retq
  402451: 66 66 2e 0f 1f 84 00 00 00 00 00     	nopw	%cs:(%rax,%rax)
  40245c: 0f 1f 40 00                  	nopl	(%rax)
  402460: be 20 81 40 00               	movl	$4227360, %esi          # imm = 0x408120
  402465: 48 81 ee 20 81 40 00         	subq	$4227360, %rsi          # imm = 0x408120
  40246c: 48 89 f0                     	movq	%rsi, %rax
  40246f: 48 c1 ee 3f                  	shrq	$63, %rsi
  402473: 48 c1 f8 03                  	sarq	$3, %rax
  402477: 48 01 c6                     	addq	%rax, %rsi
  40247a: 48 d1 fe                     	sarq	%rsi
  40247d: 74 11                        	je	0x402490 <.text+0xa0>
  40247f: b8 00 00 00 00               	movl	$0, %eax
  402484: 48 85 c0                     	testq	%rax, %rax
  402487: 74 07                        	je	0x402490 <.text+0xa0>
  402489: bf 20 81 40 00               	movl	$4227360, %edi          # imm = 0x408120
  40248e: ff e0                        	jmpq	*%rax
  402490: c3                           	retq
  402491: 66 66 2e 0f 1f 84 00 00 00 00 00     	nopw	%cs:(%rax,%rax)
  40249c: 0f 1f 40 00                  	nopl	(%rax)
  4024a0: f3 0f 1e fa                  	endbr64
  4024a4: 80 3d cd 5e 00 00 00         	cmpb	$0, 24269(%rip)         # 0x408378 <_ZSt3cin+0x118>
  4024ab: 75 13                        	jne	0x4024c0 <.text+0xd0>
  4024ad: 55                           	pushq	%rbp
  4024ae: 48 89 e5                     	movq	%rsp, %rbp
  4024b1: e8 7a ff ff ff               	callq	0x402430 <.text+0x40>
  4024b6: c6 05 bb 5e 00 00 01         	movb	$1, 24251(%rip)         # 0x408378 <_ZSt3cin+0x118>
  4024bd: 5d                           	popq	%rbp
  4024be: c3                           	retq
  4024bf: 90                           	nop
  4024c0: c3                           	retq
  4024c1: 66 66 2e 0f 1f 84 00 00 00 00 00     	nopw	%cs:(%rax,%rax)
  4024cc: 0f 1f 40 00                  	nopl	(%rax)
  4024d0: f3 0f 1e fa                  	endbr64
  4024d4: eb 8a                        	jmp	0x402460 <.text+0x70>
  4024d6: f3 0f 1e fa                  	endbr64
  4024da: 55                           	pushq	%rbp
  4024db: 48 89 e5                     	movq	%rsp, %rbp
  4024de: 48 83 ec 20                  	subq	$32, %rsp
  4024e2: 48 89 7d f8                  	movq	%rdi, -8(%rbp)
  4024e6: 48 89 75 f0                  	movq	%rsi, -16(%rbp)
  4024ea: 48 89 55 e8                  	movq	%rdx, -24(%rbp)
  4024ee: 48 8d 15 53 58 00 00         	leaq	22611(%rip), %rdx       # 0x407d48
  4024f5: 48 8b 45 f8                  	movq	-8(%rbp), %rax
  4024f9: 48 89 10                     	movq	%rdx, (%rax)
  4024fc: 48 8b 45 f8                  	movq	-8(%rbp), %rax
  402500: c6 40 48 0a                  	movb	$10, 72(%rax)
  402504: 48 8b 45 f8                  	movq	-8(%rbp), %rax
  402508: c6 40 49 01                  	movb	$1, 73(%rax)
  40250c: 48 8b 55 f0                  	movq	-16(%rbp), %rdx
  402510: 48 8b 45 f8                  	movq	-8(%rbp), %rax
  402514: 48 89 d6                     	movq	%rdx, %rsi
  402517: 48 89 c7                     	movq	%rax, %rdi
  40251a: e8 45 03 00 00               	callq	0x402864 <.text+0x474>
  40251f: 48 8b 55 e8                  	movq	-24(%rbp), %rdx
  402523: 48 8b 45 f8                  	movq	-8(%rbp), %rax
  402527: 48 89 d6                     	movq	%rdx, %rsi
  40252a: 48 89 c7                     	movq	%rax, %rdi
  40252d: e8 6e 03 00 00               	callq	0x4028a0 <.text+0x4b0>
  402532: 90                           	nop
  402533: c9                           	leave
  402534: c3                           	retq
  402535: 90                           	nop
  402536: f3 0f 1e fa                  	endbr64
  40253a: 55                           	pushq	%rbp
  40253b: 48 89 e5                     	movq	%rsp, %rbp
  40253e: 53                           	pushq	%rbx
  40253f: 48 83 ec 18                  	subq	$24, %rsp
  402543: 48 89 7d e8                  	movq	%rdi, -24(%rbp)
  402547: 48 8d 35 ca 1a 00 00         	leaq	6858(%rip), %rsi        # 0x404018
  40254e: 48 8d 3d eb 5b 00 00         	leaq	23531(%rip), %rdi       # 0x408140 <_ZSt4cout>
  402555: e8 56 fd ff ff               	callq	0x4022b0 <.plt.sec+0xa0>
  40255a: 48 89 c2                     	movq	%rax, %rdx
  40255d: 48 8b 05 7c 5a 00 00         	movq	23164(%rip), %rax       # 0x407fe0
  402564: 48 89 c6                     	movq	%rax, %rsi
  402567: 48 89 d7                     	movq	%rdx, %rdi
  40256a: e8 71 fd ff ff               	callq	0x4022e0 <.plt.sec+0xd0>
  40256f: 48 8d 35 51 1b 00 00         	leaq	6993(%rip), %rsi        # 0x4040c7
  402576: 48 8d 3d c3 5b 00 00         	leaq	23491(%rip), %rdi       # 0x408140 <_ZSt4cout>
  40257d: e8 2e fd ff ff               	callq	0x4022b0 <.plt.sec+0xa0>
  402582: 48 89 c2                     	movq	%rax, %rdx
  402585: 48 8b 45 e8                  	movq	-24(%rbp), %rax
  402589: 48 83 c0 08                  	addq	$8, %rax
  40258d: 48 89 c6                     	movq	%rax, %rsi
  402590: 48 89 d7                     	movq	%rdx, %rdi
  402593: e8 18 fd ff ff               	callq	0x4022b0 <.plt.sec+0xa0>
  402598: 48 89 c2                     	movq	%rax, %rdx
  40259b: 48 8b 05 3e 5a 00 00         	movq	23102(%rip), %rax       # 0x407fe0
  4025a2: 48 89 c6                     	movq	%rax, %rsi
  4025a5: 48 89 d7                     	movq	%rdx, %rdi
  4025a8: e8 33 fd ff ff               	callq	0x4022e0 <.plt.sec+0xd0>
  4025ad: 48 8d 35 1c 1b 00 00         	leaq	6940(%rip), %rsi        # 0x4040d0
  4025b4: 48 8d 3d 85 5b 00 00         	leaq	23429(%rip), %rdi       # 0x408140 <_ZSt4cout>
  4025bb: e8 f0 fc ff ff               	callq	0x4022b0 <.plt.sec+0xa0>
  4025c0: 48 8b 45 e8                  	movq	-24(%rbp), %rax
  4025c4: 48 8b 00                     	movq	(%rax), %rax
  4025c7: 48 8b 10                     	movq	(%rax), %rdx
  4025ca: 48 8b 45 e8                  	movq	-24(%rbp), %rax
  4025ce: 48 89 c7                     	movq	%rax, %rdi
  4025d1: ff d2                        	callq	*%rdx
  4025d3: 83 f8 05                     	cmpl	$5, %eax
  4025d6: 74 5a                        	je	0x402632 <.text+0x242>
  4025d8: 83 f8 05                     	cmpl	$5, %eax
  4025db: 7f 6a                        	jg	0x402647 <.text+0x257>
  4025dd: 83 f8 04                     	cmpl	$4, %eax
  4025e0: 74 26                        	je	0x402608 <.text+0x218>
  4025e2: 83 f8 04                     	cmpl	$4, %eax
  4025e5: 7f 60                        	jg	0x402647 <.text+0x257>
  4025e7: 83 f8 02                     	cmpl	$2, %eax
  4025ea: 74 07                        	je	0x4025f3 <.text+0x203>
  4025ec: 83 f8 03                     	cmpl	$3, %eax
  4025ef: 74 2c                        	je	0x40261d <.text+0x22d>
  4025f1: eb 54                        	jmp	0x402647 <.text+0x257>
  4025f3: 48 8d 35 df 1a 00 00         	leaq	6879(%rip), %rsi        # 0x4040d9
  4025fa: 48 8d 3d 3f 5b 00 00         	leaq	23359(%rip), %rdi       # 0x408140 <_ZSt4cout>
  402601: e8 aa fc ff ff               	callq	0x4022b0 <.plt.sec+0xa0>
  402606: eb 52                        	jmp	0x40265a <.text+0x26a>
  402608: 48 8d 35 d9 1a 00 00         	leaq	6873(%rip), %rsi        # 0x4040e8
  40260f: 48 8d 3d 2a 5b 00 00         	leaq	23338(%rip), %rdi       # 0x408140 <_ZSt4cout>
  402616: e8 95 fc ff ff               	callq	0x4022b0 <.plt.sec+0xa0>
  40261b: eb 3d                        	jmp	0x40265a <.text+0x26a>
  40261d: 48 8d 35 ce 1a 00 00         	leaq	6862(%rip), %rsi        # 0x4040f2
  402624: 48 8d 3d 15 5b 00 00         	leaq	23317(%rip), %rdi       # 0x408140 <_ZSt4cout>
  40262b: e8 80 fc ff ff               	callq	0x4022b0 <.plt.sec+0xa0>
  402630: eb 28                        	jmp	0x40265a <.text+0x26a>
  402632: 48 8d 35 c5 1a 00 00         	leaq	6853(%rip), %rsi        # 0x4040fe
  402639: 48 8d 3d 00 5b 00 00         	leaq	23296(%rip), %rdi       # 0x408140 <_ZSt4cout>
  402640: e8 6b fc ff ff               	callq	0x4022b0 <.plt.sec+0xa0>
  402645: eb 13                        	jmp	0x40265a <.text+0x26a>
  402647: 48 8d 35 b9 1a 00 00         	leaq	6841(%rip), %rsi        # 0x404107
  40264e: 48 8d 3d eb 5a 00 00         	leaq	23275(%rip), %rdi       # 0x408140 <_ZSt4cout>
  402655: e8 56 fc ff ff               	callq	0x4022b0 <.plt.sec+0xa0>
  40265a: 48 8b 05 7f 59 00 00         	movq	22911(%rip), %rax       # 0x407fe0
  402661: 48 89 c6                     	movq	%rax, %rsi
  402664: 48 8d 3d d5 5a 00 00         	leaq	23253(%rip), %rdi       # 0x408140 <_ZSt4cout>
  40266b: e8 70 fc ff ff               	callq	0x4022e0 <.plt.sec+0xd0>
  402670: 48 8d 35 a1 1a 00 00         	leaq	6817(%rip), %rsi        # 0x404118
  402677: 48 8d 3d c2 5a 00 00         	leaq	23234(%rip), %rdi       # 0x408140 <_ZSt4cout>
  40267e: e8 2d fc ff ff               	callq	0x4022b0 <.plt.sec+0xa0>
  402683: 48 89 c2                     	movq	%rax, %rdx
  402686: 48 8b 05 53 59 00 00         	movq	22867(%rip), %rax       # 0x407fe0
  40268d: 48 89 c6                     	movq	%rax, %rsi
  402690: 48 89 d7                     	movq	%rdx, %rdi
  402693: e8 48 fc ff ff               	callq	0x4022e0 <.plt.sec+0xd0>
  402698: 48 8d 35 20 1b 00 00         	leaq	6944(%rip), %rsi        # 0x4041bf
  40269f: 48 8d 3d 9a 5a 00 00         	leaq	23194(%rip), %rdi       # 0x408140 <_ZSt4cout>
  4026a6: e8 05 fc ff ff               	callq	0x4022b0 <.plt.sec+0xa0>
  4026ab: 48 89 c3                     	movq	%rax, %rbx
  4026ae: 48 8b 45 e8                  	movq	-24(%rbp), %rax
  4026b2: 48 8b 00                     	movq	(%rax), %rax
  4026b5: 48 83 c0 10                  	addq	$16, %rax
  4026b9: 48 8b 10                     	movq	(%rax), %rdx
  4026bc: 48 8b 45 e8                  	movq	-24(%rbp), %rax
  4026c0: 48 89 c7                     	movq	%rax, %rdi
  4026c3: ff d2                        	callq	*%rdx
  4026c5: 0f b6 c0                     	movzbl	%al, %eax
  4026c8: 89 c6                        	movl	%eax, %esi
  4026ca: 48 89 df                     	movq	%rbx, %rdi
  4026cd: e8 de fc ff ff               	callq	0x4023b0 <.plt.sec+0x1a0>
  4026d2: 48 89 c2                     	movq	%rax, %rdx
  4026d5: 48 8b 05 04 59 00 00         	movq	22788(%rip), %rax       # 0x407fe0
  4026dc: 48 89 c6                     	movq	%rax, %rsi
  4026df: 48 89 d7                     	movq	%rdx, %rdi
  4026e2: e8 f9 fb ff ff               	callq	0x4022e0 <.plt.sec+0xd0>
  4026e7: 48 8d 35 da 1a 00 00         	leaq	6874(%rip), %rsi        # 0x4041c8
  4026ee: 48 8d 3d 4b 5a 00 00         	leaq	23115(%rip), %rdi       # 0x408140 <_ZSt4cout>
  4026f5: e8 b6 fb ff ff               	callq	0x4022b0 <.plt.sec+0xa0>
  4026fa: 48 89 c3                     	movq	%rax, %rbx
  4026fd: 48 8b 45 e8                  	movq	-24(%rbp), %rax
  402701: 48 8b 00                     	movq	(%rax), %rax
  402704: 48 83 c0 08                  	addq	$8, %rax
  402708: 48 8b 10                     	movq	(%rax), %rdx
  40270b: 48 8b 45 e8                  	movq	-24(%rbp), %rax
  40270f: 48 89 c7                     	movq	%rax, %rdi
  402712: ff d2                        	callq	*%rdx
  402714: 0f b6 c0                     	movzbl	%al, %eax
  402717: 89 c6                        	movl	%eax, %esi
  402719: 48 89 df                     	movq	%rbx, %rdi
  40271c: e8 8f fc ff ff               	callq	0x4023b0 <.plt.sec+0x1a0>
  402721: 48 89 c2                     	movq	%rax, %rdx
  402724: 48 8b 05 b5 58 00 00         	movq	22709(%rip), %rax       # 0x407fe0
  40272b: 48 89 c6                     	movq	%rax, %rsi
  40272e: 48 89 d7                     	movq	%rdx, %rdi
  402731: e8 aa fb ff ff               	callq	0x4022e0 <.plt.sec+0xd0>
  402736: 48 8d 35 db 19 00 00         	leaq	6619(%rip), %rsi        # 0x404118
  40273d: 48 8d 3d fc 59 00 00         	leaq	23036(%rip), %rdi       # 0x408140 <_ZSt4cout>
  402744: e8 67 fb ff ff               	callq	0x4022b0 <.plt.sec+0xa0>
  402749: 48 89 c2                     	movq	%rax, %rdx
  40274c: 48 8b 05 8d 58 00 00         	movq	22669(%rip), %rax       # 0x407fe0
  402753: 48 89 c6                     	movq	%rax, %rsi
  402756: 48 89 d7                     	movq	%rdx, %rdi
  402759: e8 82 fb ff ff               	callq	0x4022e0 <.plt.sec+0xd0>
  40275e: 48 8d 35 6c 1a 00 00         	leaq	6764(%rip), %rsi        # 0x4041d1
  402765: 48 8d 3d d4 59 00 00         	leaq	22996(%rip), %rdi       # 0x408140 <_ZSt4cout>
  40276c: e8 3f fb ff ff               	callq	0x4022b0 <.plt.sec+0xa0>
  402771: 48 89 c2                     	movq	%rax, %rdx
  402774: 48 8b 45 e8                  	movq	-24(%rbp), %rax
  402778: 0f b6 40 4b                  	movzbl	75(%rax), %eax
  40277c: 0f b6 c0                     	movzbl	%al, %eax
  40277f: 89 c6                        	movl	%eax, %esi
  402781: 48 89 d7                     	movq	%rdx, %rdi
  402784: e8 27 fc ff ff               	callq	0x4023b0 <.plt.sec+0x1a0>
  402789: 48 89 c2                     	movq	%rax, %rdx
  40278c: 48 8b 05 4d 58 00 00         	movq	22605(%rip), %rax       # 0x407fe0
  402793: 48 89 c6                     	movq	%rax, %rsi
  402796: 48 89 d7                     	movq	%rdx, %rdi
  402799: e8 42 fb ff ff               	callq	0x4022e0 <.plt.sec+0xd0>
  40279e: 48 8d 35 35 1a 00 00         	leaq	6709(%rip), %rsi        # 0x4041da
  4027a5: 48 8d 3d 94 59 00 00         	leaq	22932(%rip), %rdi       # 0x408140 <_ZSt4cout>
  4027ac: e8 ff fa ff ff               	callq	0x4022b0 <.plt.sec+0xa0>
  4027b1: 48 89 c2                     	movq	%rax, %rdx
  4027b4: 48 8b 45 e8                  	movq	-24(%rbp), %rax
  4027b8: 0f b6 40 4a                  	movzbl	74(%rax), %eax
  4027bc: 0f b6 c0                     	movzbl	%al, %eax
  4027bf: 89 c6                        	movl	%eax, %esi
  4027c1: 48 89 d7                     	movq	%rdx, %rdi
  4027c4: e8 e7 fb ff ff               	callq	0x4023b0 <.plt.sec+0x1a0>
  4027c9: 48 89 c2                     	movq	%rax, %rdx
  4027cc: 48 8b 05 0d 58 00 00         	movq	22541(%rip), %rax       # 0x407fe0
  4027d3: 48 89 c6                     	movq	%rax, %rsi
  4027d6: 48 89 d7                     	movq	%rdx, %rdi
  4027d9: e8 02 fb ff ff               	callq	0x4022e0 <.plt.sec+0xd0>
  4027de: 48 8d 35 fe 19 00 00         	leaq	6654(%rip), %rsi        # 0x4041e3
  4027e5: 48 8d 3d 54 59 00 00         	leaq	22868(%rip), %rdi       # 0x408140 <_ZSt4cout>
  4027ec: e8 bf fa ff ff               	callq	0x4022b0 <.plt.sec+0xa0>
  4027f1: 48 89 c2                     	movq	%rax, %rdx
  4027f4: 48 8b 45 e8                  	movq	-24(%rbp), %rax
  4027f8: 0f b6 40 4c                  	movzbl	76(%rax), %eax
  4027fc: 0f b6 c0                     	movzbl	%al, %eax
  4027ff: 89 c6                        	movl	%eax, %esi
  402801: 48 89 d7                     	movq	%rdx, %rdi
  402804: e8 a7 fb ff ff               	callq	0x4023b0 <.plt.sec+0x1a0>
  402809: 48 89 c2                     	movq	%rax, %rdx
  40280c: 48 8b 05 cd 57 00 00         	movq	22477(%rip), %rax       # 0x407fe0
  402813: 48 89 c6                     	movq	%rax, %rsi
  402816: 48 89 d7                     	movq	%rdx, %rdi
  402819: e8 c2 fa ff ff               	callq	0x4022e0 <.plt.sec+0xd0>
  40281e: 48 8d 35 cb 19 00 00         	leaq	6603(%rip), %rsi        # 0x4041f0
  402825: 48 8d 3d 14 59 00 00         	leaq	22804(%rip), %rdi       # 0x408140 <_ZSt4cout>
  40282c: e8 7f fa ff ff               	callq	0x4022b0 <.plt.sec+0xa0>
  402831: 48 89 c2                     	movq	%rax, %rdx
  402834: 48 8b 05 a5 57 00 00         	movq	22437(%rip), %rax       # 0x407fe0
  40283b: 48 89 c6                     	movq	%rax, %rsi
  40283e: 48 89 d7                     	movq	%rdx, %rdi
  402841: e8 9a fa ff ff               	callq	0x4022e0 <.plt.sec+0xd0>
  402846: 48 8b 05 93 57 00 00         	movq	22419(%rip), %rax       # 0x407fe0
  40284d: 48 89 c6                     	movq	%rax, %rsi
  402850: 48 8d 3d e9 58 00 00         	leaq	22761(%rip), %rdi       # 0x408140 <_ZSt4cout>
  402857: e8 84 fa ff ff               	callq	0x4022e0 <.plt.sec+0xd0>
  40285c: 90                           	nop
  40285d: 48 83 c4 18                  	addq	$24, %rsp
  402861: 5b                           	popq	%rbx
  402862: 5d                           	popq	%rbp
  402863: c3                           	retq
  402864: f3 0f 1e fa                  	endbr64
  402868: 55                           	pushq	%rbp
  402869: 48 89 e5                     	movq	%rsp, %rbp
  40286c: 48 83 ec 10                  	subq	$16, %rsp
  402870: 48 89 7d f8                  	movq	%rdi, -8(%rbp)
  402874: 48 89 75 f0                  	movq	%rsi, -16(%rbp)
  402878: 48 8b 45 f8                  	movq	-8(%rbp), %rax
  40287c: 48 8d 78 08                  	leaq	8(%rax), %rdi
  402880: 48 8b 45 f0                  	movq	-16(%rbp), %rax
  402884: 48 89 c1                     	movq	%rax, %rcx
  402887: 48 8d 15 11 1a 00 00         	leaq	6673(%rip), %rdx        # 0x40429f
  40288e: be 40 00 00 00               	movl	$64, %esi
  402893: b8 00 00 00 00               	movl	$0, %eax
  402898: e8 f3 fa ff ff               	callq	0x402390 <.plt.sec+0x180>
  40289d: 90                           	nop
  40289e: c9                           	leave
  40289f: c3                           	retq
  4028a0: f3 0f 1e fa                  	endbr64
  4028a4: 55                           	pushq	%rbp
  4028a5: 48 89 e5                     	movq	%rsp, %rbp
  4028a8: 48 83 ec 10                  	subq	$16, %rsp
  4028ac: 48 89 7d f8                  	movq	%rdi, -8(%rbp)
  4028b0: 48 89 75 f0                  	movq	%rsi, -16(%rbp)
  4028b4: 48 8d 45 f0                  	leaq	-16(%rbp), %rax
  4028b8: 48 8d 35 61 6e 00 00         	leaq	28257(%rip), %rsi       # 0x409720 <_ZSt3cin+0x14c0>
  4028bf: 48 89 c7                     	movq	%rax, %rdi
  4028c2: e8 55 02 00 00               	callq	0x402b1c <.text+0x72c>
  4028c7: 89 c2                        	movl	%eax, %edx
  4028c9: 48 8b 45 f8                  	movq	-8(%rbp), %rax
  4028cd: 88 50 4a                     	movb	%dl, 74(%rax)
  4028d0: 48 8d 45 f0                  	leaq	-16(%rbp), %rax
  4028d4: 48 8d 35 45 6e 00 00         	leaq	28229(%rip), %rsi       # 0x409720 <_ZSt3cin+0x14c0>
  4028db: 48 89 c7                     	movq	%rax, %rdi
  4028de: e8 39 02 00 00               	callq	0x402b1c <.text+0x72c>
  4028e3: 89 c2                        	movl	%eax, %edx
  4028e5: 48 8b 45 f8                  	movq	-8(%rbp), %rax
  4028e9: 88 50 4b                     	movb	%dl, 75(%rax)
  4028ec: 48 8d 45 f0                  	leaq	-16(%rbp), %rax
  4028f0: 48 8d 35 29 6e 00 00         	leaq	28201(%rip), %rsi       # 0x409720 <_ZSt3cin+0x14c0>
  4028f7: 48 89 c7                     	movq	%rax, %rdi
  4028fa: e8 1d 02 00 00               	callq	0x402b1c <.text+0x72c>
  4028ff: 89 c2                        	movl	%eax, %edx
  402901: 48 8b 45 f8                  	movq	-8(%rbp), %rax
  402905: 88 50 4c                     	movb	%dl, 76(%rax)
  402908: 90                           	nop
  402909: c9                           	leave
  40290a: c3                           	retq
  40290b: 90                           	nop
  40290c: f3 0f 1e fa                  	endbr64
  402910: 55                           	pushq	%rbp
  402911: 48 89 e5                     	movq	%rsp, %rbp
  402914: 48 89 7d f8                  	movq	%rdi, -8(%rbp)
  402918: 48 8b 45 f8                  	movq	-8(%rbp), %rax
  40291c: 0f b6 40 49                  	movzbl	73(%rax), %eax
  402920: 5d                           	popq	%rbp
  402921: c3                           	retq
  402922: f3 0f 1e fa                  	endbr64
  402926: 55                           	pushq	%rbp
  402927: 48 89 e5                     	movq	%rsp, %rbp
  40292a: 48 89 7d f8                  	movq	%rdi, -8(%rbp)
  40292e: 48 8b 45 f8                  	movq	-8(%rbp), %rax
  402932: 0f b6 40 48                  	movzbl	72(%rax), %eax
  402936: 5d                           	popq	%rbp
  402937: c3                           	retq
  402938: f3 0f 1e fa                  	endbr64
  40293c: 55                           	pushq	%rbp
  40293d: 48 89 e5                     	movq	%rsp, %rbp
  402940: 48 89 7d f8                  	movq	%rdi, -8(%rbp)
  402944: b8 01 00 00 00               	movl	$1, %eax
  402949: 5d                           	popq	%rbp
  40294a: c3                           	retq
  40294b: f3 0f 1e fa                  	endbr64
  40294f: 55                           	pushq	%rbp
  402950: 48 89 e5                     	movq	%rsp, %rbp
  402953: 48 83 ec 10                  	subq	$16, %rsp
  402957: 89 7d fc                     	movl	%edi, -4(%rbp)
  40295a: 89 75 f8                     	movl	%esi, -8(%rbp)
  40295d: 83 7d fc 01                  	cmpl	$1, -4(%rbp)
  402961: 75 75                        	jne	0x4029d8 <.text+0x5e8>
  402963: 81 7d f8 ff ff 00 00         	cmpl	$65535, -8(%rbp)        # imm = 0xFFFF
  40296a: 75 6c                        	jne	0x4029d8 <.text+0x5e8>
  40296c: 48 8d 3d 35 81 00 00         	leaq	33077(%rip), %rdi       # 0x40aaa8 <_ZSt3cin+0x2848>
  402973: e8 f8 f9 ff ff               	callq	0x402370 <.plt.sec+0x160>
  402978: 48 8d 15 91 57 00 00         	leaq	22417(%rip), %rdx       # 0x408110
  40297f: 48 8d 35 22 81 00 00         	leaq	33058(%rip), %rsi       # 0x40aaa8 <_ZSt3cin+0x2848>
  402986: 48 8b 05 6b 56 00 00         	movq	22123(%rip), %rax       # 0x407ff8
  40298d: 48 89 c7                     	movq	%rax, %rdi
  402990: e8 fb f8 ff ff               	callq	0x402290 <.plt.sec+0x80>
  402995: 48 8d 3d e4 59 00 00         	leaq	23012(%rip), %rdi       # 0x408380 <_ZSt3cin+0x120>
  40299c: e8 53 00 00 00               	callq	0x4029f4 <.text+0x604>
  4029a1: 48 8d 15 68 57 00 00         	leaq	22376(%rip), %rdx       # 0x408110
  4029a8: 48 8d 35 d1 59 00 00         	leaq	22993(%rip), %rsi       # 0x408380 <_ZSt3cin+0x120>
  4029af: 48 8d 3d fe 00 00 00         	leaq	254(%rip), %rdi         # 0x402ab4 <.text+0x6c4>
  4029b6: e8 d5 f8 ff ff               	callq	0x402290 <.plt.sec+0x80>
  4029bb: 48 8d 3d be 59 00 00         	leaq	22974(%rip), %rdi       # 0x408380 <_ZSt3cin+0x120>
  4029c2: e8 0d 01 00 00               	callq	0x402ad4 <.text+0x6e4>
  4029c7: 89 c0                        	movl	%eax, %eax
  4029c9: 48 89 c6                     	movq	%rax, %rsi
  4029cc: 48 8d 3d 4d 6d 00 00         	leaq	27981(%rip), %rdi       # 0x409720 <_ZSt3cin+0x14c0>
  4029d3: e8 1a 01 00 00               	callq	0x402af2 <.text+0x702>
  4029d8: 90                           	nop
  4029d9: c9                           	leave
  4029da: c3                           	retq
  4029db: f3 0f 1e fa                  	endbr64
  4029df: 55                           	pushq	%rbp
  4029e0: 48 89 e5                     	movq	%rsp, %rbp
  4029e3: be ff ff 00 00               	movl	$65535, %esi            # imm = 0xFFFF
  4029e8: bf 01 00 00 00               	movl	$1, %edi
  4029ed: e8 59 ff ff ff               	callq	0x40294b <.text+0x55b>
  4029f2: 5d                           	popq	%rbp
  4029f3: c3                           	retq
  4029f4: f3 0f 1e fa                  	endbr64
  4029f8: 55                           	pushq	%rbp
  4029f9: 48 89 e5                     	movq	%rsp, %rbp
  4029fc: 53                           	pushq	%rbx
  4029fd: 48 83 ec 58                  	subq	$88, %rsp
  402a01: 48 89 7d a8                  	movq	%rdi, -88(%rbp)
  402a05: 64 48 8b 04 25 28 00 00 00   	movq	%fs:40, %rax
  402a0e: 48 89 45 e8                  	movq	%rax, -24(%rbp)
  402a12: 31 c0                        	xorl	%eax, %eax
  402a14: 48 8d 45 bf                  	leaq	-65(%rbp), %rax
  402a18: 48 89 c7                     	movq	%rax, %rdi
  402a1b: e8 b0 f9 ff ff               	callq	0x4023d0 <.plt.sec+0x1c0>
  402a20: 48 8d 55 bf                  	leaq	-65(%rbp), %rdx
  402a24: 48 8d 45 c0                  	leaq	-64(%rbp), %rax
  402a28: 48 8d 35 da 15 00 00         	leaq	5594(%rip), %rsi        # 0x404009
  402a2f: 48 89 c7                     	movq	%rax, %rdi
  402a32: e8 f9 f8 ff ff               	callq	0x402330 <.plt.sec+0x120>
  402a37: 48 8d 55 c0                  	leaq	-64(%rbp), %rdx
  402a3b: 48 8b 45 a8                  	movq	-88(%rbp), %rax
  402a3f: 48 89 d6                     	movq	%rdx, %rsi
  402a42: 48 89 c7                     	movq	%rax, %rdi
  402a45: e8 56 f9 ff ff               	callq	0x4023a0 <.plt.sec+0x190>
  402a4a: 48 8d 45 c0                  	leaq	-64(%rbp), %rax
  402a4e: 48 89 c7                     	movq	%rax, %rdi
  402a51: e8 1a f8 ff ff               	callq	0x402270 <.plt.sec+0x60>
  402a56: 48 8d 45 bf                  	leaq	-65(%rbp), %rax
  402a5a: 48 89 c7                     	movq	%rax, %rdi
  402a5d: e8 8e f8 ff ff               	callq	0x4022f0 <.plt.sec+0xe0>
  402a62: 90                           	nop
  402a63: 48 8b 45 e8                  	movq	-24(%rbp), %rax
  402a67: 64 48 33 04 25 28 00 00 00   	xorq	%fs:40, %rax
  402a70: 74 3a                        	je	0x402aac <.text+0x6bc>
  402a72: eb 33                        	jmp	0x402aa7 <.text+0x6b7>
  402a74: f3 0f 1e fa                  	endbr64
  402a78: 48 89 c3                     	movq	%rax, %rbx
  402a7b: 48 8d 45 c0                  	leaq	-64(%rbp), %rax
  402a7f: 48 89 c7                     	movq	%rax, %rdi
  402a82: e8 e9 f7 ff ff               	callq	0x402270 <.plt.sec+0x60>
  402a87: eb 07                        	jmp	0x402a90 <.text+0x6a0>
  402a89: f3 0f 1e fa                  	endbr64
  402a8d: 48 89 c3                     	movq	%rax, %rbx
  402a90: 48 8d 45 bf                  	leaq	-65(%rbp), %rax
  402a94: 48 89 c7                     	movq	%rax, %rdi
  402a97: e8 54 f8 ff ff               	callq	0x4022f0 <.plt.sec+0xe0>
  402a9c: 48 89 d8                     	movq	%rbx, %rax
  402a9f: 48 89 c7                     	movq	%rax, %rdi
  402aa2: e8 19 f9 ff ff               	callq	0x4023c0 <.plt.sec+0x1b0>
  402aa7: e8 54 f8 ff ff               	callq	0x402300 <.plt.sec+0xf0>
  402aac: 48 83 c4 58                  	addq	$88, %rsp
  402ab0: 5b                           	popq	%rbx
  402ab1: 5d                           	popq	%rbp
  402ab2: c3                           	retq
  402ab3: 90                           	nop
  402ab4: f3 0f 1e fa                  	endbr64
  402ab8: 55                           	pushq	%rbp
  402ab9: 48 89 e5                     	movq	%rsp, %rbp
  402abc: 48 83 ec 10                  	subq	$16, %rsp
  402ac0: 48 89 7d f8                  	movq	%rdi, -8(%rbp)
  402ac4: 48 8b 45 f8                  	movq	-8(%rbp), %rax
  402ac8: 48 89 c7                     	movq	%rax, %rdi
  402acb: e8 d0 f7 ff ff               	callq	0x4022a0 <.plt.sec+0x90>
  402ad0: 90                           	nop
  402ad1: c9                           	leave
  402ad2: c3                           	retq
  402ad3: 90                           	nop
  402ad4: f3 0f 1e fa                  	endbr64
  402ad8: 55                           	pushq	%rbp
  402ad9: 48 89 e5                     	movq	%rsp, %rbp
  402adc: 48 83 ec 10                  	subq	$16, %rsp
  402ae0: 48 89 7d f8                  	movq	%rdi, -8(%rbp)
  402ae4: 48 8b 45 f8                  	movq	-8(%rbp), %rax
  402ae8: 48 89 c7                     	movq	%rax, %rdi
  402aeb: e8 70 f8 ff ff               	callq	0x402360 <.plt.sec+0x150>
  402af0: c9                           	leave
  402af1: c3                           	retq
  402af2: f3 0f 1e fa                  	endbr64
  402af6: 55                           	pushq	%rbp
  402af7: 48 89 e5                     	movq	%rsp, %rbp
  402afa: 48 83 ec 10                  	subq	$16, %rsp
  402afe: 48 89 7d f8                  	movq	%rdi, -8(%rbp)
  402b02: 48 89 75 f0                  	movq	%rsi, -16(%rbp)
  402b06: 48 8b 55 f0                  	movq	-16(%rbp), %rdx
  402b0a: 48 8b 45 f8                  	movq	-8(%rbp), %rax
  402b0e: 48 89 d6                     	movq	%rdx, %rsi
  402b11: 48 89 c7                     	movq	%rax, %rdi
  402b14: e8 31 00 00 00               	callq	0x402b4a <.text+0x75a>
  402b19: 90                           	nop
  402b1a: c9                           	leave
  402b1b: c3                           	retq
  402b1c: f3 0f 1e fa                  	endbr64
  402b20: 55                           	pushq	%rbp
  402b21: 48 89 e5                     	movq	%rsp, %rbp
  402b24: 48 83 ec 10                  	subq	$16, %rsp
  402b28: 48 89 7d f8                  	movq	%rdi, -8(%rbp)
  402b2c: 48 89 75 f0                  	movq	%rsi, -16(%rbp)
  402b30: 48 8b 55 f8                  	movq	-8(%rbp), %rdx
  402b34: 48 8b 4d f0                  	movq	-16(%rbp), %rcx
  402b38: 48 8b 45 f8                  	movq	-8(%rbp), %rax
  402b3c: 48 89 ce                     	movq	%rcx, %rsi
  402b3f: 48 89 c7                     	movq	%rax, %rdi
  402b42: e8 ad 00 00 00               	callq	0x402bf4 <.text+0x804>
  402b47: c9                           	leave
  402b48: c3                           	retq
  402b49: 90                           	nop
  402b4a: f3 0f 1e fa                  	endbr64
  402b4e: 55                           	pushq	%rbp
  402b4f: 48 89 e5                     	movq	%rsp, %rbp
  402b52: 48 83 ec 20                  	subq	$32, %rsp
  402b56: 48 89 7d e8                  	movq	%rdi, -24(%rbp)
  402b5a: 48 89 75 e0                  	movq	%rsi, -32(%rbp)
  402b5e: 48 8b 45 e0                  	movq	-32(%rbp), %rax
  402b62: 48 89 c7                     	movq	%rax, %rdi
  402b65: e8 29 02 00 00               	callq	0x402d93 <.text+0x9a3>
  402b6a: 48 8b 55 e8                  	movq	-24(%rbp), %rdx
  402b6e: 48 89 02                     	movq	%rax, (%rdx)
  402b71: 48 c7 45 f0 01 00 00 00      	movq	$1, -16(%rbp)
  402b79: 48 81 7d f0 6f 02 00 00      	cmpq	$623, -16(%rbp)         # imm = 0x26F
  402b81: 77 5e                        	ja	0x402be1 <.text+0x7f1>
  402b83: 48 8b 45 f0                  	movq	-16(%rbp), %rax
  402b87: 48 8d 50 ff                  	leaq	-1(%rax), %rdx
  402b8b: 48 8b 45 e8                  	movq	-24(%rbp), %rax
  402b8f: 48 8b 04 d0                  	movq	(%rax,%rdx,8), %rax
  402b93: 48 89 45 f8                  	movq	%rax, -8(%rbp)
  402b97: 48 8b 45 f8                  	movq	-8(%rbp), %rax
  402b9b: 48 c1 e8 1e                  	shrq	$30, %rax
  402b9f: 48 31 45 f8                  	xorq	%rax, -8(%rbp)
  402ba3: 48 8b 45 f8                  	movq	-8(%rbp), %rax
  402ba7: 48 69 c0 65 89 07 6c         	imulq	$1812433253, %rax, %rax # imm = 0x6C078965
  402bae: 48 89 45 f8                  	movq	%rax, -8(%rbp)
  402bb2: 48 8b 45 f0                  	movq	-16(%rbp), %rax
  402bb6: 48 89 c7                     	movq	%rax, %rdi
  402bb9: e8 f3 01 00 00               	callq	0x402db1 <.text+0x9c1>
  402bbe: 48 01 45 f8                  	addq	%rax, -8(%rbp)
  402bc2: 48 8b 45 f8                  	movq	-8(%rbp), %rax
  402bc6: 48 89 c7                     	movq	%rax, %rdi
  402bc9: e8 c5 01 00 00               	callq	0x402d93 <.text+0x9a3>
  402bce: 48 8b 55 e8                  	movq	-24(%rbp), %rdx
  402bd2: 48 8b 4d f0                  	movq	-16(%rbp), %rcx
  402bd6: 48 89 04 ca                  	movq	%rax, (%rdx,%rcx,8)
  402bda: 48 83 45 f0 01               	addq	$1, -16(%rbp)
  402bdf: eb 98                        	jmp	0x402b79 <.text+0x789>
  402be1: 48 8b 45 e8                  	movq	-24(%rbp), %rax
  402be5: 48 c7 80 80 13 00 00 70 02 00 00     	movq	$624, 4992(%rax) # imm = 0x270
  402bf0: 90                           	nop
  402bf1: c9                           	leave
  402bf2: c3                           	retq
  402bf3: 90                           	nop
  402bf4: f3 0f 1e fa                  	endbr64
  402bf8: 55                           	pushq	%rbp
  402bf9: 48 89 e5                     	movq	%rsp, %rbp
  402bfc: 53                           	pushq	%rbx
  402bfd: 48 81 ec 88 00 00 00         	subq	$136, %rsp
  402c04: 48 89 7d 88                  	movq	%rdi, -120(%rbp)
  402c08: 48 89 75 80                  	movq	%rsi, -128(%rbp)
  402c0c: 48 89 95 78 ff ff ff         	movq	%rdx, -136(%rbp)
  402c13: 64 48 8b 04 25 28 00 00 00   	movq	%fs:40, %rax
  402c1c: 48 89 45 e8                  	movq	%rax, -24(%rbp)
  402c20: 31 c0                        	xorl	%eax, %eax
  402c22: 48 c7 45 98 00 00 00 00      	movq	$0, -104(%rbp)
  402c2a: b8 ff ff ff ff               	movl	$4294967295, %eax       # imm = 0xFFFFFFFF
  402c2f: 48 89 45 a0                  	movq	%rax, -96(%rbp)
  402c33: 48 89 45 a8                  	movq	%rax, -88(%rbp)
  402c37: 48 8b 85 78 ff ff ff         	movq	-136(%rbp), %rax
  402c3e: 48 89 c7                     	movq	%rax, %rdi
  402c41: e8 8a 01 00 00               	callq	0x402dd0 <.text+0x9e0>
  402c46: 48 63 d8                     	movslq	%eax, %rbx
  402c49: 48 8b 85 78 ff ff ff         	movq	-136(%rbp), %rax
  402c50: 48 89 c7                     	movq	%rax, %rdi
  402c53: e8 8e 01 00 00               	callq	0x402de6 <.text+0x9f6>
  402c58: 48 98                        	cltq
  402c5a: 48 29 c3                     	subq	%rax, %rbx
  402c5d: 48 89 d8                     	movq	%rbx, %rax
  402c60: 48 89 45 b0                  	movq	%rax, -80(%rbp)
  402c64: b8 fe ff ff ff               	movl	$4294967294, %eax       # imm = 0xFFFFFFFE
  402c69: 48 39 45 b0                  	cmpq	%rax, -80(%rbp)
  402c6d: 77 5d                        	ja	0x402ccc <.text+0x8dc>
  402c6f: 48 8b 45 b0                  	movq	-80(%rbp), %rax
  402c73: 48 83 c0 01                  	addq	$1, %rax
  402c77: 48 89 45 c8                  	movq	%rax, -56(%rbp)
  402c7b: b8 ff ff ff ff               	movl	$4294967295, %eax       # imm = 0xFFFFFFFF
  402c80: ba 00 00 00 00               	movl	$0, %edx
  402c85: 48 f7 75 c8                  	divq	-56(%rbp)
  402c89: 48 89 45 d0                  	movq	%rax, -48(%rbp)
  402c8d: 48 8b 45 c8                  	movq	-56(%rbp), %rax
  402c91: 48 0f af 45 d0               	imulq	-48(%rbp), %rax
  402c96: 48 89 45 d8                  	movq	%rax, -40(%rbp)
  402c9a: 48 8b 45 80                  	movq	-128(%rbp), %rax
  402c9e: 48 89 c7                     	movq	%rax, %rdi
  402ca1: e8 54 01 00 00               	callq	0x402dfa <.text+0xa0a>
  402ca6: 48 89 45 90                  	movq	%rax, -112(%rbp)
  402caa: 48 8b 45 90                  	movq	-112(%rbp), %rax
  402cae: 48 3b 45 d8                  	cmpq	-40(%rbp), %rax
  402cb2: 72 02                        	jb	0x402cb6 <.text+0x8c6>
  402cb4: eb e4                        	jmp	0x402c9a <.text+0x8aa>
  402cb6: 48 8b 45 90                  	movq	-112(%rbp), %rax
  402cba: ba 00 00 00 00               	movl	$0, %edx
  402cbf: 48 f7 75 d0                  	divq	-48(%rbp)
  402cc3: 48 89 45 90                  	movq	%rax, -112(%rbp)
  402cc7: e9 92 00 00 00               	jmp	0x402d5e <.text+0x96e>
  402ccc: b8 ff ff ff ff               	movl	$4294967295, %eax       # imm = 0xFFFFFFFF
  402cd1: 48 39 45 b0                  	cmpq	%rax, -80(%rbp)
  402cd5: 76 77                        	jbe	0x402d4e <.text+0x95e>
  402cd7: 48 b8 00 00 00 00 01 00 00 00	movabsq	$4294967296, %rax       # imm = 0x100000000
  402ce1: 48 89 45 b8                  	movq	%rax, -72(%rbp)
  402ce5: 48 8b 45 b0                  	movq	-80(%rbp), %rax
  402ce9: 48 c1 e8 20                  	shrq	$32, %rax
  402ced: 89 c2                        	movl	%eax, %edx
  402cef: 48 8d 45 e0                  	leaq	-32(%rbp), %rax
  402cf3: be 00 00 00 00               	movl	$0, %esi
  402cf8: 48 89 c7                     	movq	%rax, %rdi
  402cfb: e8 92 01 00 00               	callq	0x402e92 <.text+0xaa2>
  402d00: 48 8d 55 e0                  	leaq	-32(%rbp), %rdx
  402d04: 48 8b 4d 80                  	movq	-128(%rbp), %rcx
  402d08: 48 8b 45 88                  	movq	-120(%rbp), %rax
  402d0c: 48 89 ce                     	movq	%rcx, %rsi
  402d0f: 48 89 c7                     	movq	%rax, %rdi
  402d12: e8 dd fe ff ff               	callq	0x402bf4 <.text+0x804>
  402d17: 48 98                        	cltq
  402d19: 48 c1 e0 20                  	shlq	$32, %rax
  402d1d: 48 89 45 c0                  	movq	%rax, -64(%rbp)
  402d21: 48 8b 45 80                  	movq	-128(%rbp), %rax
  402d25: 48 89 c7                     	movq	%rax, %rdi
  402d28: e8 cd 00 00 00               	callq	0x402dfa <.text+0xa0a>
  402d2d: 48 8b 55 c0                  	movq	-64(%rbp), %rdx
  402d31: 48 01 d0                     	addq	%rdx, %rax
  402d34: 48 89 45 90                  	movq	%rax, -112(%rbp)
  402d38: 48 8b 45 90                  	movq	-112(%rbp), %rax
  402d3c: 48 3b 45 b0                  	cmpq	-80(%rbp), %rax
  402d40: 77 95                        	ja	0x402cd7 <.text+0x8e7>
  402d42: 48 8b 45 90                  	movq	-112(%rbp), %rax
  402d46: 48 3b 45 c0                  	cmpq	-64(%rbp), %rax
  402d4a: 73 12                        	jae	0x402d5e <.text+0x96e>
  402d4c: eb 89                        	jmp	0x402cd7 <.text+0x8e7>
  402d4e: 48 8b 45 80                  	movq	-128(%rbp), %rax
  402d52: 48 89 c7                     	movq	%rax, %rdi
  402d55: e8 a0 00 00 00               	callq	0x402dfa <.text+0xa0a>
  402d5a: 48 89 45 90                  	movq	%rax, -112(%rbp)
  402d5e: 48 8b 85 78 ff ff ff         	movq	-136(%rbp), %rax
  402d65: 48 89 c7                     	movq	%rax, %rdi
  402d68: e8 79 00 00 00               	callq	0x402de6 <.text+0x9f6>
  402d6d: 89 c2                        	movl	%eax, %edx
  402d6f: 48 8b 45 90                  	movq	-112(%rbp), %rax
  402d73: 01 d0                        	addl	%edx, %eax
  402d75: 48 8b 4d e8                  	movq	-24(%rbp), %rcx
  402d79: 64 48 33 0c 25 28 00 00 00   	xorq	%fs:40, %rcx
  402d82: 74 05                        	je	0x402d89 <.text+0x999>
  402d84: e8 77 f5 ff ff               	callq	0x402300 <.plt.sec+0xf0>
  402d89: 48 81 c4 88 00 00 00         	addq	$136, %rsp
  402d90: 5b                           	popq	%rbx
  402d91: 5d                           	popq	%rbp
  402d92: c3                           	retq
  402d93: f3 0f 1e fa                  	endbr64
  402d97: 55                           	pushq	%rbp
  402d98: 48 89 e5                     	movq	%rsp, %rbp
  402d9b: 48 83 ec 10                  	subq	$16, %rsp
  402d9f: 48 89 7d f8                  	movq	%rdi, -8(%rbp)
  402da3: 48 8b 45 f8                  	movq	-8(%rbp), %rax
  402da7: 48 89 c7                     	movq	%rax, %rdi
  402daa: e8 0b 01 00 00               	callq	0x402eba <.text+0xaca>
  402daf: c9                           	leave
  402db0: c3                           	retq
  402db1: f3 0f 1e fa                  	endbr64
  402db5: 55                           	pushq	%rbp
  402db6: 48 89 e5                     	movq	%rsp, %rbp
  402db9: 48 83 ec 10                  	subq	$16, %rsp
  402dbd: 48 89 7d f8                  	movq	%rdi, -8(%rbp)
  402dc1: 48 8b 45 f8                  	movq	-8(%rbp), %rax
  402dc5: 48 89 c7                     	movq	%rax, %rdi
  402dc8: e8 10 01 00 00               	callq	0x402edd <.text+0xaed>
  402dcd: c9                           	leave
  402dce: c3                           	retq
  402dcf: 90                           	nop
  402dd0: f3 0f 1e fa                  	endbr64
  402dd4: 55                           	pushq	%rbp
  402dd5: 48 89 e5                     	movq	%rsp, %rbp
  402dd8: 48 89 7d f8                  	movq	%rdi, -8(%rbp)
  402ddc: 48 8b 45 f8                  	movq	-8(%rbp), %rax
  402de0: 8b 40 04                     	movl	4(%rax), %eax
  402de3: 5d                           	popq	%rbp
  402de4: c3                           	retq
  402de5: 90                           	nop
  402de6: f3 0f 1e fa                  	endbr64
  402dea: 55                           	pushq	%rbp
  402deb: 48 89 e5                     	movq	%rsp, %rbp
  402dee: 48 89 7d f8                  	movq	%rdi, -8(%rbp)
  402df2: 48 8b 45 f8                  	movq	-8(%rbp), %rax
  402df6: 8b 00                        	movl	(%rax), %eax
  402df8: 5d                           	popq	%rbp
  402df9: c3                           	retq
  402dfa: f3 0f 1e fa                  	endbr64
  402dfe: 55                           	pushq	%rbp
  402dff: 48 89 e5                     	movq	%rsp, %rbp
  402e02: 48 83 ec 20                  	subq	$32, %rsp
  402e06: 48 89 7d e8                  	movq	%rdi, -24(%rbp)
  402e0a: 48 8b 45 e8                  	movq	-24(%rbp), %rax
  402e0e: 48 8b 80 80 13 00 00         	movq	4992(%rax), %rax
  402e15: 48 3d 6f 02 00 00            	cmpq	$623, %rax              # imm = 0x26F
  402e1b: 76 0c                        	jbe	0x402e29 <.text+0xa39>
  402e1d: 48 8b 45 e8                  	movq	-24(%rbp), %rax
  402e21: 48 89 c7                     	movq	%rax, %rdi
  402e24: e8 fd 00 00 00               	callq	0x402f26 <.text+0xb36>
  402e29: 48 8b 45 e8                  	movq	-24(%rbp), %rax
  402e2d: 48 8b 80 80 13 00 00         	movq	4992(%rax), %rax
  402e34: 48 8d 48 01                  	leaq	1(%rax), %rcx
  402e38: 48 8b 55 e8                  	movq	-24(%rbp), %rdx
  402e3c: 48 89 8a 80 13 00 00         	movq	%rcx, 4992(%rdx)
  402e43: 48 8b 55 e8                  	movq	-24(%rbp), %rdx
  402e47: 48 8b 04 c2                  	movq	(%rdx,%rax,8), %rax
  402e4b: 48 89 45 f8                  	movq	%rax, -8(%rbp)
  402e4f: 48 8b 45 f8                  	movq	-8(%rbp), %rax
  402e53: 48 c1 e8 0b                  	shrq	$11, %rax
  402e57: 89 c0                        	movl	%eax, %eax
  402e59: 48 31 45 f8                  	xorq	%rax, -8(%rbp)
  402e5d: 48 8b 45 f8                  	movq	-8(%rbp), %rax
  402e61: 48 c1 e0 07                  	shlq	$7, %rax
  402e65: 25 80 56 2c 9d               	andl	$2636928640, %eax       # imm = 0x9D2C5680
  402e6a: 48 31 45 f8                  	xorq	%rax, -8(%rbp)
  402e6e: 48 8b 45 f8                  	movq	-8(%rbp), %rax
  402e72: 48 c1 e0 0f                  	shlq	$15, %rax
  402e76: 25 00 00 c6 ef               	andl	$4022730752, %eax       # imm = 0xEFC60000
  402e7b: 48 31 45 f8                  	xorq	%rax, -8(%rbp)
  402e7f: 48 8b 45 f8                  	movq	-8(%rbp), %rax
  402e83: 48 c1 e8 12                  	shrq	$18, %rax
  402e87: 48 31 45 f8                  	xorq	%rax, -8(%rbp)
  402e8b: 48 8b 45 f8                  	movq	-8(%rbp), %rax
  402e8f: c9                           	leave
  402e90: c3                           	retq
  402e91: 90                           	nop
  402e92: f3 0f 1e fa                  	endbr64
  402e96: 55                           	pushq	%rbp
  402e97: 48 89 e5                     	movq	%rsp, %rbp
  402e9a: 48 89 7d f8                  	movq	%rdi, -8(%rbp)
  402e9e: 89 75 f4                     	movl	%esi, -12(%rbp)
  402ea1: 89 55 f0                     	movl	%edx, -16(%rbp)
  402ea4: 48 8b 45 f8                  	movq	-8(%rbp), %rax
  402ea8: 8b 55 f4                     	movl	-12(%rbp), %edx
  402eab: 89 10                        	movl	%edx, (%rax)
  402ead: 48 8b 45 f8                  	movq	-8(%rbp), %rax
  402eb1: 8b 55 f0                     	movl	-16(%rbp), %edx
  402eb4: 89 50 04                     	movl	%edx, 4(%rax)
  402eb7: 90                           	nop
  402eb8: 5d                           	popq	%rbp
  402eb9: c3                           	retq
  402eba: f3 0f 1e fa                  	endbr64
  402ebe: 55                           	pushq	%rbp
  402ebf: 48 89 e5                     	movq	%rsp, %rbp
  402ec2: 48 89 7d e8                  	movq	%rdi, -24(%rbp)
  402ec6: 48 8b 45 e8                  	movq	-24(%rbp), %rax
  402eca: 48 89 45 f8                  	movq	%rax, -8(%rbp)
  402ece: b8 ff ff ff ff               	movl	$4294967295, %eax       # imm = 0xFFFFFFFF
  402ed3: 48 21 45 f8                  	andq	%rax, -8(%rbp)
  402ed7: 48 8b 45 f8                  	movq	-8(%rbp), %rax
  402edb: 5d                           	popq	%rbp
  402edc: c3                           	retq
  402edd: f3 0f 1e fa                  	endbr64
  402ee1: 55                           	pushq	%rbp
  402ee2: 48 89 e5                     	movq	%rsp, %rbp
  402ee5: 48 89 7d e8                  	movq	%rdi, -24(%rbp)
  402ee9: 48 8b 45 e8                  	movq	-24(%rbp), %rax
  402eed: 48 89 45 f8                  	movq	%rax, -8(%rbp)
  402ef1: 48 8b 4d f8                  	movq	-8(%rbp), %rcx
  402ef5: 48 89 c8                     	movq	%rcx, %rax
  402ef8: 48 c1 e8 04                  	shrq	$4, %rax
  402efc: 48 ba 21 0d d2 20 0d d2 20 0d	movabsq	$945986875574848801, %rdx # imm = 0xD20D20D20D20D21
  402f06: 48 f7 e2                     	mulq	%rdx
  402f09: 48 89 d0                     	movq	%rdx, %rax
  402f0c: 48 d1 e8                     	shrq	%rax
  402f0f: 48 69 c0 70 02 00 00         	imulq	$624, %rax, %rax        # imm = 0x270
  402f16: 48 29 c1                     	subq	%rax, %rcx
  402f19: 48 89 c8                     	movq	%rcx, %rax
  402f1c: 48 89 45 f8                  	movq	%rax, -8(%rbp)
  402f20: 48 8b 45 f8                  	movq	-8(%rbp), %rax
  402f24: 5d                           	popq	%rbp
  402f25: c3                           	retq
  402f26: f3 0f 1e fa                  	endbr64
  402f2a: 55                           	pushq	%rbp
  402f2b: 48 89 e5                     	movq	%rsp, %rbp
  402f2e: 48 89 7d b8                  	movq	%rdi, -72(%rbp)
  402f32: 48 c7 45 d8 00 00 00 80      	movq	$-2147483648, -40(%rbp) # imm = 0x80000000
  402f3a: 48 c7 45 e0 ff ff ff 7f      	movq	$2147483647, -32(%rbp)  # imm = 0x7FFFFFFF
  402f42: 48 c7 45 c8 00 00 00 00      	movq	$0, -56(%rbp)
  402f4a: 48 81 7d c8 e2 00 00 00      	cmpq	$226, -56(%rbp)
  402f52: 0f 87 82 00 00 00            	ja	0x402fda <.text+0xbea>
  402f58: 48 8b 45 b8                  	movq	-72(%rbp), %rax
  402f5c: 48 8b 55 c8                  	movq	-56(%rbp), %rdx
  402f60: 48 8b 04 d0                  	movq	(%rax,%rdx,8), %rax
  402f64: 48 25 00 00 00 80            	andq	$-2147483648, %rax      # imm = 0x80000000
  402f6a: 48 89 c1                     	movq	%rax, %rcx
  402f6d: 48 8b 45 c8                  	movq	-56(%rbp), %rax
  402f71: 48 8d 50 01                  	leaq	1(%rax), %rdx
  402f75: 48 8b 45 b8                  	movq	-72(%rbp), %rax
  402f79: 48 8b 04 d0                  	movq	(%rax,%rdx,8), %rax
  402f7d: 25 ff ff ff 7f               	andl	$2147483647, %eax       # imm = 0x7FFFFFFF
  402f82: 48 09 c8                     	orq	%rcx, %rax
  402f85: 48 89 45 e8                  	movq	%rax, -24(%rbp)
  402f89: 48 8b 45 c8                  	movq	-56(%rbp), %rax
  402f8d: 48 8d 90 8d 01 00 00         	leaq	397(%rax), %rdx
  402f94: 48 8b 45 b8                  	movq	-72(%rbp), %rax
  402f98: 48 8b 04 d0                  	movq	(%rax,%rdx,8), %rax
  402f9c: 48 8b 55 e8                  	movq	-24(%rbp), %rdx
  402fa0: 48 d1 ea                     	shrq	%rdx
  402fa3: 48 31 c2                     	xorq	%rax, %rdx
  402fa6: 48 8b 45 e8                  	movq	-24(%rbp), %rax
  402faa: 83 e0 01                     	andl	$1, %eax
  402fad: 48 85 c0                     	testq	%rax, %rax
  402fb0: 74 07                        	je	0x402fb9 <.text+0xbc9>
  402fb2: b8 df b0 08 99               	movl	$2567483615, %eax       # imm = 0x9908B0DF
  402fb7: eb 05                        	jmp	0x402fbe <.text+0xbce>
  402fb9: b8 00 00 00 00               	movl	$0, %eax
  402fbe: 48 31 d0                     	xorq	%rdx, %rax
  402fc1: 48 89 c1                     	movq	%rax, %rcx
  402fc4: 48 8b 45 b8                  	movq	-72(%rbp), %rax
  402fc8: 48 8b 55 c8                  	movq	-56(%rbp), %rdx
  402fcc: 48 89 0c d0                  	movq	%rcx, (%rax,%rdx,8)
  402fd0: 48 83 45 c8 01               	addq	$1, -56(%rbp)
  402fd5: e9 70 ff ff ff               	jmp	0x402f4a <.text+0xb5a>
  402fda: 48 c7 45 d0 e3 00 00 00      	movq	$227, -48(%rbp)
  402fe2: 48 81 7d d0 6e 02 00 00      	cmpq	$622, -48(%rbp)         # imm = 0x26E
  402fea: 0f 87 82 00 00 00            	ja	0x403072 <.text+0xc82>
  402ff0: 48 8b 45 b8                  	movq	-72(%rbp), %rax
  402ff4: 48 8b 55 d0                  	movq	-48(%rbp), %rdx
  402ff8: 48 8b 04 d0                  	movq	(%rax,%rdx,8), %rax
  402ffc: 48 25 00 00 00 80            	andq	$-2147483648, %rax      # imm = 0x80000000
  403002: 48 89 c1                     	movq	%rax, %rcx
  403005: 48 8b 45 d0                  	movq	-48(%rbp), %rax
  403009: 48 8d 50 01                  	leaq	1(%rax), %rdx
  40300d: 48 8b 45 b8                  	movq	-72(%rbp), %rax
  403011: 48 8b 04 d0                  	movq	(%rax,%rdx,8), %rax
  403015: 25 ff ff ff 7f               	andl	$2147483647, %eax       # imm = 0x7FFFFFFF
  40301a: 48 09 c8                     	orq	%rcx, %rax
  40301d: 48 89 45 f0                  	movq	%rax, -16(%rbp)
  403021: 48 8b 45 d0                  	movq	-48(%rbp), %rax
  403025: 48 8d 90 1d ff ff ff         	leaq	-227(%rax), %rdx
  40302c: 48 8b 45 b8                  	movq	-72(%rbp), %rax
  403030: 48 8b 04 d0                  	movq	(%rax,%rdx,8), %rax
  403034: 48 8b 55 f0                  	movq	-16(%rbp), %rdx
  403038: 48 d1 ea                     	shrq	%rdx
  40303b: 48 31 c2                     	xorq	%rax, %rdx
  40303e: 48 8b 45 f0                  	movq	-16(%rbp), %rax
  403042: 83 e0 01                     	andl	$1, %eax
  403045: 48 85 c0                     	testq	%rax, %rax
  403048: 74 07                        	je	0x403051 <.text+0xc61>
  40304a: b8 df b0 08 99               	movl	$2567483615, %eax       # imm = 0x9908B0DF
  40304f: eb 05                        	jmp	0x403056 <.text+0xc66>
  403051: b8 00 00 00 00               	movl	$0, %eax
  403056: 48 31 d0                     	xorq	%rdx, %rax
  403059: 48 89 c1                     	movq	%rax, %rcx
  40305c: 48 8b 45 b8                  	movq	-72(%rbp), %rax
  403060: 48 8b 55 d0                  	movq	-48(%rbp), %rdx
  403064: 48 89 0c d0                  	movq	%rcx, (%rax,%rdx,8)
  403068: 48 83 45 d0 01               	addq	$1, -48(%rbp)
  40306d: e9 70 ff ff ff               	jmp	0x402fe2 <.text+0xbf2>
  403072: 48 8b 45 b8                  	movq	-72(%rbp), %rax
  403076: 48 8b 80 78 13 00 00         	movq	4984(%rax), %rax
  40307d: 48 25 00 00 00 80            	andq	$-2147483648, %rax      # imm = 0x80000000
  403083: 48 89 c2                     	movq	%rax, %rdx
  403086: 48 8b 45 b8                  	movq	-72(%rbp), %rax
  40308a: 48 8b 00                     	movq	(%rax), %rax
  40308d: 25 ff ff ff 7f               	andl	$2147483647, %eax       # imm = 0x7FFFFFFF
  403092: 48 09 d0                     	orq	%rdx, %rax
  403095: 48 89 45 f8                  	movq	%rax, -8(%rbp)
  403099: 48 8b 45 b8                  	movq	-72(%rbp), %rax
  40309d: 48 8b 80 60 0c 00 00         	movq	3168(%rax), %rax
  4030a4: 48 8b 55 f8                  	movq	-8(%rbp), %rdx
  4030a8: 48 d1 ea                     	shrq	%rdx
  4030ab: 48 31 c2                     	xorq	%rax, %rdx
  4030ae: 48 8b 45 f8                  	movq	-8(%rbp), %rax
  4030b2: 83 e0 01                     	andl	$1, %eax
  4030b5: 48 85 c0                     	testq	%rax, %rax
  4030b8: 74 07                        	je	0x4030c1 <.text+0xcd1>
  4030ba: b8 df b0 08 99               	movl	$2567483615, %eax       # imm = 0x9908B0DF
  4030bf: eb 05                        	jmp	0x4030c6 <.text+0xcd6>
  4030c1: b8 00 00 00 00               	movl	$0, %eax
  4030c6: 48 31 c2                     	xorq	%rax, %rdx
  4030c9: 48 8b 45 b8                  	movq	-72(%rbp), %rax
  4030cd: 48 89 90 78 13 00 00         	movq	%rdx, 4984(%rax)
  4030d4: 48 8b 45 b8                  	movq	-72(%rbp), %rax
  4030d8: 48 c7 80 80 13 00 00 00 00 00 00     	movq	$0, 4992(%rax)
  4030e3: 90                           	nop
  4030e4: 5d                           	popq	%rbp
  4030e5: c3                           	retq
  4030e6: f3 0f 1e fa                  	endbr64
  4030ea: 55                           	pushq	%rbp
  4030eb: 48 89 e5                     	movq	%rsp, %rbp
  4030ee: 53                           	pushq	%rbx
  4030ef: 48 83 ec 28                  	subq	$40, %rsp
  4030f3: 48 89 7d d8                  	movq	%rdi, -40(%rbp)
  4030f7: 48 89 75 d0                  	movq	%rsi, -48(%rbp)
  4030fb: 64 48 8b 04 25 28 00 00 00   	movq	%fs:40, %rax
  403104: 48 89 45 e8                  	movq	%rax, -24(%rbp)
  403108: 31 c0                        	xorl	%eax, %eax
  40310a: 48 8b 5d d8                  	movq	-40(%rbp), %rbx
  40310e: 48 8d 45 e0                  	leaq	-32(%rbp), %rax
  403112: ba 20 00 00 00               	movl	$32, %edx
  403117: be 01 00 00 00               	movl	$1, %esi
  40311c: 48 89 c7                     	movq	%rax, %rdi
  40311f: e8 3c 03 00 00               	callq	0x403460 <.text+0x1070>
  403124: 48 8b 55 e0                  	movq	-32(%rbp), %rdx
  403128: 48 8b 45 d0                  	movq	-48(%rbp), %rax
  40312c: 48 89 c6                     	movq	%rax, %rsi
  40312f: 48 89 df                     	movq	%rbx, %rdi
  403132: e8 9f f3 ff ff               	callq	0x4024d6 <.text+0xe6>
  403137: 48 8d 15 32 4c 00 00         	leaq	19506(%rip), %rdx       # 0x407d70
  40313e: 48 8b 45 d8                  	movq	-40(%rbp), %rax
  403142: 48 89 10                     	movq	%rdx, (%rax)
  403145: 90                           	nop
  403146: 48 8b 45 e8                  	movq	-24(%rbp), %rax
  40314a: 64 48 33 04 25 28 00 00 00   	xorq	%fs:40, %rax
  403153: 74 05                        	je	0x40315a <.text+0xd6a>
  403155: e8 a6 f1 ff ff               	callq	0x402300 <.plt.sec+0xf0>
  40315a: 48 83 c4 28                  	addq	$40, %rsp
  40315e: 5b                           	popq	%rbx
  40315f: 5d                           	popq	%rbp
  403160: c3                           	retq
  403161: 90                           	nop
  403162: f3 0f 1e fa                  	endbr64
  403166: 55                           	pushq	%rbp
  403167: 48 89 e5                     	movq	%rsp, %rbp
  40316a: 48 83 ec 20                  	subq	$32, %rsp
  40316e: 48 89 7d e8                  	movq	%rdi, -24(%rbp)
  403172: 64 48 8b 04 25 28 00 00 00   	movq	%fs:40, %rax
  40317b: 48 89 45 f8                  	movq	%rax, -8(%rbp)
  40317f: 31 c0                        	xorl	%eax, %eax
  403181: 48 8b 45 e8                  	movq	-24(%rbp), %rax
  403185: 48 8b 00                     	movq	(%rax), %rax
  403188: 48 8b 10                     	movq	(%rax), %rdx
  40318b: 48 8b 45 e8                  	movq	-24(%rbp), %rax
  40318f: 48 89 c7                     	movq	%rax, %rdi
  403192: ff d2                        	callq	*%rdx
  403194: 83 f8 04                     	cmpl	$4, %eax
  403197: 74 51                        	je	0x4031ea <.text+0xdfa>
  403199: 83 f8 04                     	cmpl	$4, %eax
  40319c: 0f 8f ba 00 00 00            	jg	0x40325c <.text+0xe6c>
  4031a2: 83 f8 02                     	cmpl	$2, %eax
  4031a5: 74 0a                        	je	0x4031b1 <.text+0xdc1>
  4031a7: 83 f8 03                     	cmpl	$3, %eax
  4031aa: 74 77                        	je	0x403223 <.text+0xe33>
  4031ac: e9 ab 00 00 00               	jmp	0x40325c <.text+0xe6c>
  4031b1: c7 45 f4 80 00 00 00         	movl	$128, -12(%rbp)
  4031b8: 48 8b 45 e8                  	movq	-24(%rbp), %rax
  4031bc: 0f b6 40 49                  	movzbl	73(%rax), %eax
  4031c0: 0f b6 d0                     	movzbl	%al, %edx
  4031c3: 48 8b 45 e8                  	movq	-24(%rbp), %rax
  4031c7: 0f b6 40 4b                  	movzbl	75(%rax), %eax
  4031cb: 0f b6 c0                     	movzbl	%al, %eax
  4031ce: 01 d0                        	addl	%edx, %eax
  4031d0: 89 45 f0                     	movl	%eax, -16(%rbp)
  4031d3: 48 8d 55 f4                  	leaq	-12(%rbp), %rdx
  4031d7: 48 8d 45 f0                  	leaq	-16(%rbp), %rax
  4031db: 48 89 d6                     	movq	%rdx, %rsi
  4031de: 48 89 c7                     	movq	%rax, %rdi
  4031e1: e8 a7 02 00 00               	callq	0x40348d <.text+0x109d>
  4031e6: 8b 00                        	movl	(%rax), %eax
  4031e8: eb 7a                        	jmp	0x403264 <.text+0xe74>
  4031ea: c7 45 f4 80 00 00 00         	movl	$128, -12(%rbp)
  4031f1: 48 8b 45 e8                  	movq	-24(%rbp), %rax
  4031f5: 0f b6 40 49                  	movzbl	73(%rax), %eax
  4031f9: 0f b6 d0                     	movzbl	%al, %edx
  4031fc: 48 8b 45 e8                  	movq	-24(%rbp), %rax
  403200: 0f b6 40 4c                  	movzbl	76(%rax), %eax
  403204: 0f b6 c0                     	movzbl	%al, %eax
  403207: 01 d0                        	addl	%edx, %eax
  403209: 89 45 f0                     	movl	%eax, -16(%rbp)
  40320c: 48 8d 55 f4                  	leaq	-12(%rbp), %rdx
  403210: 48 8d 45 f0                  	leaq	-16(%rbp), %rax
  403214: 48 89 d6                     	movq	%rdx, %rsi
  403217: 48 89 c7                     	movq	%rax, %rdi
  40321a: e8 6e 02 00 00               	callq	0x40348d <.text+0x109d>
  40321f: 8b 00                        	movl	(%rax), %eax
  403221: eb 41                        	jmp	0x403264 <.text+0xe74>
  403223: c7 45 f4 80 00 00 00         	movl	$128, -12(%rbp)
  40322a: 48 8b 45 e8                  	movq	-24(%rbp), %rax
  40322e: 0f b6 40 49                  	movzbl	73(%rax), %eax
  403232: 0f b6 d0                     	movzbl	%al, %edx
  403235: 48 8b 45 e8                  	movq	-24(%rbp), %rax
  403239: 0f b6 40 4a                  	movzbl	74(%rax), %eax
  40323d: 0f b6 c0                     	movzbl	%al, %eax
  403240: 01 d0                        	addl	%edx, %eax
  403242: 89 45 f0                     	movl	%eax, -16(%rbp)
  403245: 48 8d 55 f4                  	leaq	-12(%rbp), %rdx
  403249: 48 8d 45 f0                  	leaq	-16(%rbp), %rax
  40324d: 48 89 d6                     	movq	%rdx, %rsi
  403250: 48 89 c7                     	movq	%rax, %rdi
  403253: e8 35 02 00 00               	callq	0x40348d <.text+0x109d>
  403258: 8b 00                        	movl	(%rax), %eax
  40325a: eb 08                        	jmp	0x403264 <.text+0xe74>
  40325c: 48 8b 45 e8                  	movq	-24(%rbp), %rax
  403260: 0f b6 40 49                  	movzbl	73(%rax), %eax
  403264: 48 8b 4d f8                  	movq	-8(%rbp), %rcx
  403268: 64 48 33 0c 25 28 00 00 00   	xorq	%fs:40, %rcx
  403271: 74 05                        	je	0x403278 <.text+0xe88>
  403273: e8 88 f0 ff ff               	callq	0x402300 <.plt.sec+0xf0>
  403278: c9                           	leave
  403279: c3                           	retq
  40327a: f3 0f 1e fa                  	endbr64
  40327e: 55                           	pushq	%rbp
  40327f: 48 89 e5                     	movq	%rsp, %rbp
  403282: 48 83 ec 20                  	subq	$32, %rsp
  403286: 48 89 7d e8                  	movq	%rdi, -24(%rbp)
  40328a: 64 48 8b 04 25 28 00 00 00   	movq	%fs:40, %rax
  403293: 48 89 45 f8                  	movq	%rax, -8(%rbp)
  403297: 31 c0                        	xorl	%eax, %eax
  403299: 48 8b 45 e8                  	movq	-24(%rbp), %rax
  40329d: 48 8b 00                     	movq	(%rax), %rax
  4032a0: 48 8b 10                     	movq	(%rax), %rdx
  4032a3: 48 8b 45 e8                  	movq	-24(%rbp), %rax
  4032a7: 48 89 c7                     	movq	%rax, %rdi
  4032aa: ff d2                        	callq	*%rdx
  4032ac: 83 f8 04                     	cmpl	$4, %eax
  4032af: 74 77                        	je	0x403328 <.text+0xf38>
  4032b1: 83 f8 04                     	cmpl	$4, %eax
  4032b4: 0f 8f 15 01 00 00            	jg	0x4033cf <.text+0xfdf>
  4032ba: 83 f8 02                     	cmpl	$2, %eax
  4032bd: 74 0e                        	je	0x4032cd <.text+0xedd>
  4032bf: 83 f8 03                     	cmpl	$3, %eax
  4032c2: 0f 84 b8 00 00 00            	je	0x403380 <.text+0xf90>
  4032c8: e9 02 01 00 00               	jmp	0x4033cf <.text+0xfdf>
  4032cd: c7 45 f4 80 00 00 00         	movl	$128, -12(%rbp)
  4032d4: 48 8b 45 e8                  	movq	-24(%rbp), %rax
  4032d8: 0f b6 40 48                  	movzbl	72(%rax), %eax
  4032dc: 0f b6 c8                     	movzbl	%al, %ecx
  4032df: 48 8b 45 e8                  	movq	-24(%rbp), %rax
  4032e3: 0f b6 40 4b                  	movzbl	75(%rax), %eax
  4032e7: 0f b6 d0                     	movzbl	%al, %edx
  4032ea: 89 d0                        	movl	%edx, %eax
  4032ec: c1 e0 02                     	shll	$2, %eax
  4032ef: 01 d0                        	addl	%edx, %eax
  4032f1: c1 e0 03                     	shll	$3, %eax
  4032f4: 01 d0                        	addl	%edx, %eax
  4032f6: 8d 14 85 00 00 00 00         	leal	(,%rax,4), %edx
  4032fd: 01 d0                        	addl	%edx, %eax
  4032ff: 66 c1 e8 08                  	shrw	$8, %ax
  403303: c0 e8 03                     	shrb	$3, %al
  403306: 0f b6 c0                     	movzbl	%al, %eax
  403309: 01 c8                        	addl	%ecx, %eax
  40330b: 89 45 f0                     	movl	%eax, -16(%rbp)
  40330e: 48 8d 55 f4                  	leaq	-12(%rbp), %rdx
  403312: 48 8d 45 f0                  	leaq	-16(%rbp), %rax
  403316: 48 89 d6                     	movq	%rdx, %rsi
  403319: 48 89 c7                     	movq	%rax, %rdi
  40331c: e8 6c 01 00 00               	callq	0x40348d <.text+0x109d>
  403321: 8b 00                        	movl	(%rax), %eax
  403323: e9 af 00 00 00               	jmp	0x4033d7 <.text+0xfe7>
  403328: c7 45 f4 80 00 00 00         	movl	$128, -12(%rbp)
  40332f: 48 8b 45 e8                  	movq	-24(%rbp), %rax
  403333: 0f b6 40 48                  	movzbl	72(%rax), %eax
  403337: 0f b6 c8                     	movzbl	%al, %ecx
  40333a: 48 8b 45 e8                  	movq	-24(%rbp), %rax
  40333e: 0f b6 40 4c                  	movzbl	76(%rax), %eax
  403342: 0f b6 d0                     	movzbl	%al, %edx
  403345: 89 d0                        	movl	%edx, %eax
  403347: c1 e0 02                     	shll	$2, %eax
  40334a: 01 d0                        	addl	%edx, %eax
  40334c: c1 e0 03                     	shll	$3, %eax
  40334f: 01 d0                        	addl	%edx, %eax
  403351: 8d 14 85 00 00 00 00         	leal	(,%rax,4), %edx
  403358: 01 d0                        	addl	%edx, %eax
  40335a: 66 c1 e8 08                  	shrw	$8, %ax
  40335e: c0 e8 04                     	shrb	$4, %al
  403361: 0f b6 c0                     	movzbl	%al, %eax
  403364: 01 c8                        	addl	%ecx, %eax
  403366: 89 45 f0                     	movl	%eax, -16(%rbp)
  403369: 48 8d 55 f4                  	leaq	-12(%rbp), %rdx
  40336d: 48 8d 45 f0                  	leaq	-16(%rbp), %rax
  403371: 48 89 d6                     	movq	%rdx, %rsi
  403374: 48 89 c7                     	movq	%rax, %rdi
  403377: e8 11 01 00 00               	callq	0x40348d <.text+0x109d>
  40337c: 8b 00                        	movl	(%rax), %eax
  40337e: eb 57                        	jmp	0x4033d7 <.text+0xfe7>
  403380: c7 45 f4 80 00 00 00         	movl	$128, -12(%rbp)
  403387: 48 8b 45 e8                  	movq	-24(%rbp), %rax
  40338b: 0f b6 40 48                  	movzbl	72(%rax), %eax
  40338f: 0f b6 c8                     	movzbl	%al, %ecx
  403392: 48 8b 45 e8                  	movq	-24(%rbp), %rax
  403396: 0f b6 40 4a                  	movzbl	74(%rax), %eax
  40339a: 0f b6 d0                     	movzbl	%al, %edx
  40339d: 89 d0                        	movl	%edx, %eax
  40339f: c1 e0 04                     	shll	$4, %eax
  4033a2: 01 d0                        	addl	%edx, %eax
  4033a4: c1 e0 03                     	shll	$3, %eax
  4033a7: 01 d0                        	addl	%edx, %eax
  4033a9: 66 c1 e8 08                  	shrw	$8, %ax
  4033ad: c0 e8 03                     	shrb	$3, %al
  4033b0: 0f b6 c0                     	movzbl	%al, %eax
  4033b3: 01 c8                        	addl	%ecx, %eax
  4033b5: 89 45 f0                     	movl	%eax, -16(%rbp)
  4033b8: 48 8d 55 f4                  	leaq	-12(%rbp), %rdx
  4033bc: 48 8d 45 f0                  	leaq	-16(%rbp), %rax
  4033c0: 48 89 d6                     	movq	%rdx, %rsi
  4033c3: 48 89 c7                     	movq	%rax, %rdi
  4033c6: e8 c2 00 00 00               	callq	0x40348d <.text+0x109d>
  4033cb: 8b 00                        	movl	(%rax), %eax
  4033cd: eb 08                        	jmp	0x4033d7 <.text+0xfe7>
  4033cf: 48 8b 45 e8                  	movq	-24(%rbp), %rax
  4033d3: 0f b6 40 48                  	movzbl	72(%rax), %eax
  4033d7: 48 8b 75 f8                  	movq	-8(%rbp), %rsi
  4033db: 64 48 33 34 25 28 00 00 00   	xorq	%fs:40, %rsi
  4033e4: 74 05                        	je	0x4033eb <.text+0xffb>
  4033e6: e8 15 ef ff ff               	callq	0x402300 <.plt.sec+0xf0>
  4033eb: c9                           	leave
  4033ec: c3                           	retq
  4033ed: 90                           	nop
  4033ee: f3 0f 1e fa                  	endbr64
  4033f2: 55                           	pushq	%rbp
  4033f3: 48 89 e5                     	movq	%rsp, %rbp
  4033f6: 48 89 7d f8                  	movq	%rdi, -8(%rbp)
  4033fa: 48 8b 45 f8                  	movq	-8(%rbp), %rax
  4033fe: 0f b6 50 4b                  	movzbl	75(%rax), %edx
  403402: 48 8b 45 f8                  	movq	-8(%rbp), %rax
  403406: 0f b6 40 4c                  	movzbl	76(%rax), %eax
  40340a: 38 c2                        	cmpb	%al, %dl
  40340c: 72 1b                        	jb	0x403429 <.text+0x1039>
  40340e: 48 8b 45 f8                  	movq	-8(%rbp), %rax
  403412: 0f b6 50 4b                  	movzbl	75(%rax), %edx
  403416: 48 8b 45 f8                  	movq	-8(%rbp), %rax
  40341a: 0f b6 40 4a                  	movzbl	74(%rax), %eax
  40341e: 38 c2                        	cmpb	%al, %dl
  403420: 72 07                        	jb	0x403429 <.text+0x1039>
  403422: b8 02 00 00 00               	movl	$2, %eax
  403427: eb 34                        	jmp	0x40345d <.text+0x106d>
  403429: 48 8b 45 f8                  	movq	-8(%rbp), %rax
  40342d: 0f b6 50 4c                  	movzbl	76(%rax), %edx
  403431: 48 8b 45 f8                  	movq	-8(%rbp), %rax
  403435: 0f b6 40 4b                  	movzbl	75(%rax), %eax
  403439: 38 c2                        	cmpb	%al, %dl
  40343b: 72 1b                        	jb	0x403458 <.text+0x1068>
  40343d: 48 8b 45 f8                  	movq	-8(%rbp), %rax
  403441: 0f b6 50 4c                  	movzbl	76(%rax), %edx
  403445: 48 8b 45 f8                  	movq	-8(%rbp), %rax
  403449: 0f b6 40 4a                  	movzbl	74(%rax), %eax
  40344d: 38 c2                        	cmpb	%al, %dl
  40344f: 72 07                        	jb	0x403458 <.text+0x1068>
  403451: b8 04 00 00 00               	movl	$4, %eax
  403456: eb 05                        	jmp	0x40345d <.text+0x106d>
  403458: b8 03 00 00 00               	movl	$3, %eax
  40345d: 5d                           	popq	%rbp
  40345e: c3                           	retq
  40345f: 90                           	nop
  403460: f3 0f 1e fa                  	endbr64
  403464: 55                           	pushq	%rbp
  403465: 48 89 e5                     	movq	%rsp, %rbp
  403468: 48 83 ec 10                  	subq	$16, %rsp
  40346c: 48 89 7d f8                  	movq	%rdi, -8(%rbp)
  403470: 89 75 f4                     	movl	%esi, -12(%rbp)
  403473: 89 55 f0                     	movl	%edx, -16(%rbp)
  403476: 48 8b 45 f8                  	movq	-8(%rbp), %rax
  40347a: 8b 55 f0                     	movl	-16(%rbp), %edx
  40347d: 8b 4d f4                     	movl	-12(%rbp), %ecx
  403480: 89 ce                        	movl	%ecx, %esi
  403482: 48 89 c7                     	movq	%rax, %rdi
  403485: e8 08 fa ff ff               	callq	0x402e92 <.text+0xaa2>
  40348a: 90                           	nop
  40348b: c9                           	leave
  40348c: c3                           	retq
  40348d: f3 0f 1e fa                  	endbr64
  403491: 55                           	pushq	%rbp
  403492: 48 89 e5                     	movq	%rsp, %rbp
  403495: 48 89 7d f8                  	movq	%rdi, -8(%rbp)
  403499: 48 89 75 f0                  	movq	%rsi, -16(%rbp)
  40349d: 48 8b 45 f0                  	movq	-16(%rbp), %rax
  4034a1: 8b 10                        	movl	(%rax), %edx
  4034a3: 48 8b 45 f8                  	movq	-8(%rbp), %rax
  4034a7: 8b 00                        	movl	(%rax), %eax
  4034a9: 39 c2                        	cmpl	%eax, %edx
  4034ab: 7d 06                        	jge	0x4034b3 <.text+0x10c3>
  4034ad: 48 8b 45 f0                  	movq	-16(%rbp), %rax
  4034b1: eb 04                        	jmp	0x4034b7 <.text+0x10c7>
  4034b3: 48 8b 45 f8                  	movq	-8(%rbp), %rax
  4034b7: 5d                           	popq	%rbp
  4034b8: c3                           	retq
  4034b9: 90                           	nop
  4034ba: f3 0f 1e fa                  	endbr64
  4034be: 55                           	pushq	%rbp
  4034bf: 48 89 e5                     	movq	%rsp, %rbp
  4034c2: 53                           	pushq	%rbx
  4034c3: 48 83 ec 28                  	subq	$40, %rsp
  4034c7: 48 89 7d d8                  	movq	%rdi, -40(%rbp)
  4034cb: 48 89 75 d0                  	movq	%rsi, -48(%rbp)
  4034cf: 64 48 8b 04 25 28 00 00 00   	movq	%fs:40, %rax
  4034d8: 48 89 45 e8                  	movq	%rax, -24(%rbp)
  4034dc: 31 c0                        	xorl	%eax, %eax
  4034de: 48 8b 5d d8                  	movq	-40(%rbp), %rbx
  4034e2: 48 8d 45 e0                  	leaq	-32(%rbp), %rax
  4034e6: ba ff 00 00 00               	movl	$255, %edx
  4034eb: be 64 00 00 00               	movl	$100, %esi
  4034f0: 48 89 c7                     	movq	%rax, %rdi
  4034f3: e8 68 ff ff ff               	callq	0x403460 <.text+0x1070>
  4034f8: 48 8b 55 e0                  	movq	-32(%rbp), %rdx
  4034fc: 48 8b 45 d0                  	movq	-48(%rbp), %rax
  403500: 48 89 c6                     	movq	%rax, %rsi
  403503: 48 89 df                     	movq	%rbx, %rdi
  403506: e8 cb ef ff ff               	callq	0x4024d6 <.text+0xe6>
  40350b: 48 8d 15 86 48 00 00         	leaq	18566(%rip), %rdx       # 0x407d98
  403512: 48 8b 45 d8                  	movq	-40(%rbp), %rax
  403516: 48 89 10                     	movq	%rdx, (%rax)
  403519: 90                           	nop
  40351a: 48 8b 45 e8                  	movq	-24(%rbp), %rax
  40351e: 64 48 33 04 25 28 00 00 00   	xorq	%fs:40, %rax
  403527: 74 05                        	je	0x40352e <.text+0x113e>
  403529: e8 d2 ed ff ff               	callq	0x402300 <.plt.sec+0xf0>
  40352e: 48 83 c4 28                  	addq	$40, %rsp
  403532: 5b                           	popq	%rbx
  403533: 5d                           	popq	%rbp
  403534: c3                           	retq
  403535: 90                           	nop
  403536: f3 0f 1e fa                  	endbr64
  40353a: 55                           	pushq	%rbp
  40353b: 48 89 e5                     	movq	%rsp, %rbp
  40353e: 48 83 ec 20                  	subq	$32, %rsp
  403542: 48 89 7d e8                  	movq	%rdi, -24(%rbp)
  403546: 64 48 8b 04 25 28 00 00 00   	movq	%fs:40, %rax
  40354f: 48 89 45 f8                  	movq	%rax, -8(%rbp)
  403553: 31 c0                        	xorl	%eax, %eax
  403555: c7 45 f4 ff 00 00 00         	movl	$255, -12(%rbp)
  40355c: 48 8b 45 e8                  	movq	-24(%rbp), %rax
  403560: 0f b6 40 49                  	movzbl	73(%rax), %eax
  403564: 0f b6 d0                     	movzbl	%al, %edx
  403567: 48 8b 45 e8                  	movq	-24(%rbp), %rax
  40356b: 0f b6 40 4b                  	movzbl	75(%rax), %eax
  40356f: 0f b6 c0                     	movzbl	%al, %eax
  403572: 01 c2                        	addl	%eax, %edx
  403574: 48 8b 45 e8                  	movq	-24(%rbp), %rax
  403578: 0f b6 40 4c                  	movzbl	76(%rax), %eax
  40357c: 0f b6 c0                     	movzbl	%al, %eax
  40357f: 01 c2                        	addl	%eax, %edx
  403581: 48 8b 45 e8                  	movq	-24(%rbp), %rax
  403585: 0f b6 40 4a                  	movzbl	74(%rax), %eax
  403589: 0f b6 c0                     	movzbl	%al, %eax
  40358c: 01 d0                        	addl	%edx, %eax
  40358e: 89 45 f0                     	movl	%eax, -16(%rbp)
  403591: 48 8d 55 f4                  	leaq	-12(%rbp), %rdx
  403595: 48 8d 45 f0                  	leaq	-16(%rbp), %rax
  403599: 48 89 d6                     	movq	%rdx, %rsi
  40359c: 48 89 c7                     	movq	%rax, %rdi
  40359f: e8 e9 fe ff ff               	callq	0x40348d <.text+0x109d>
  4035a4: 8b 00                        	movl	(%rax), %eax
  4035a6: 48 8b 4d f8                  	movq	-8(%rbp), %rcx
  4035aa: 64 48 33 0c 25 28 00 00 00   	xorq	%fs:40, %rcx
  4035b3: 74 05                        	je	0x4035ba <.text+0x11ca>
  4035b5: e8 46 ed ff ff               	callq	0x402300 <.plt.sec+0xf0>
  4035ba: c9                           	leave
  4035bb: c3                           	retq
  4035bc: f3 0f 1e fa                  	endbr64
  4035c0: 55                           	pushq	%rbp
  4035c1: 48 89 e5                     	movq	%rsp, %rbp
  4035c4: 48 83 ec 20                  	subq	$32, %rsp
  4035c8: 48 89 7d e8                  	movq	%rdi, -24(%rbp)
  4035cc: 64 48 8b 04 25 28 00 00 00   	movq	%fs:40, %rax
  4035d5: 48 89 45 f8                  	movq	%rax, -8(%rbp)
  4035d9: 31 c0                        	xorl	%eax, %eax
  4035db: c7 45 f4 ff 00 00 00         	movl	$255, -12(%rbp)
  4035e2: 48 8b 45 e8                  	movq	-24(%rbp), %rax
  4035e6: 0f b6 40 48                  	movzbl	72(%rax), %eax
  4035ea: 0f b6 c8                     	movzbl	%al, %ecx
  4035ed: 48 8b 45 e8                  	movq	-24(%rbp), %rax
  4035f1: 0f b6 40 4b                  	movzbl	75(%rax), %eax
  4035f5: 0f b6 d0                     	movzbl	%al, %edx
  4035f8: 89 d0                        	movl	%edx, %eax
  4035fa: c1 e0 02                     	shll	$2, %eax
  4035fd: 01 d0                        	addl	%edx, %eax
  4035ff: c1 e0 03                     	shll	$3, %eax
  403602: 01 d0                        	addl	%edx, %eax
  403604: 8d 14 85 00 00 00 00         	leal	(,%rax,4), %edx
  40360b: 01 d0                        	addl	%edx, %eax
  40360d: 66 c1 e8 08                  	shrw	$8, %ax
  403611: c0 e8 03                     	shrb	$3, %al
  403614: 0f b6 c0                     	movzbl	%al, %eax
  403617: 01 c1                        	addl	%eax, %ecx
  403619: 48 8b 45 e8                  	movq	-24(%rbp), %rax
  40361d: 0f b6 40 4c                  	movzbl	76(%rax), %eax
  403621: 0f b6 d0                     	movzbl	%al, %edx
  403624: 89 d0                        	movl	%edx, %eax
  403626: c1 e0 02                     	shll	$2, %eax
  403629: 01 d0                        	addl	%edx, %eax
  40362b: c1 e0 03                     	shll	$3, %eax
  40362e: 01 d0                        	addl	%edx, %eax
  403630: 8d 14 85 00 00 00 00         	leal	(,%rax,4), %edx
  403637: 01 d0                        	addl	%edx, %eax
  403639: 66 c1 e8 08                  	shrw	$8, %ax
  40363d: c0 e8 04                     	shrb	$4, %al
  403640: 0f b6 c0                     	movzbl	%al, %eax
  403643: 01 c1                        	addl	%eax, %ecx
  403645: 48 8b 45 e8                  	movq	-24(%rbp), %rax
  403649: 0f b6 40 4a                  	movzbl	74(%rax), %eax
  40364d: 0f b6 d0                     	movzbl	%al, %edx
  403650: 89 d0                        	movl	%edx, %eax
  403652: c1 e0 04                     	shll	$4, %eax
  403655: 01 d0                        	addl	%edx, %eax
  403657: c1 e0 03                     	shll	$3, %eax
  40365a: 01 d0                        	addl	%edx, %eax
  40365c: 66 c1 e8 08                  	shrw	$8, %ax
  403660: c0 e8 03                     	shrb	$3, %al
  403663: 0f b6 c0                     	movzbl	%al, %eax
  403666: 01 c8                        	addl	%ecx, %eax
  403668: 89 45 f0                     	movl	%eax, -16(%rbp)
  40366b: 48 8d 55 f4                  	leaq	-12(%rbp), %rdx
  40366f: 48 8d 45 f0                  	leaq	-16(%rbp), %rax
  403673: 48 89 d6                     	movq	%rdx, %rsi
  403676: 48 89 c7                     	movq	%rax, %rdi
  403679: e8 0f fe ff ff               	callq	0x40348d <.text+0x109d>
  40367e: 8b 00                        	movl	(%rax), %eax
  403680: 48 8b 75 f8                  	movq	-8(%rbp), %rsi
  403684: 64 48 33 34 25 28 00 00 00   	xorq	%fs:40, %rsi
  40368d: 74 05                        	je	0x403694 <.text+0x12a4>
  40368f: e8 6c ec ff ff               	callq	0x402300 <.plt.sec+0xf0>
  403694: c9                           	leave
  403695: c3                           	retq
  403696: f3 0f 1e fa                  	endbr64
  40369a: 55                           	pushq	%rbp
  40369b: 48 89 e5                     	movq	%rsp, %rbp
  40369e: 48 89 7d f8                  	movq	%rdi, -8(%rbp)
  4036a2: b8 05 00 00 00               	movl	$5, %eax
  4036a7: 5d                           	popq	%rbp
  4036a8: c3                           	retq
  4036a9: f3 0f 1e fa                  	endbr64
  4036ad: 55                           	pushq	%rbp
  4036ae: 48 89 e5                     	movq	%rsp, %rbp
  4036b1: 48 8d 35 19 0c 00 00         	leaq	3097(%rip), %rsi        # 0x4042d1
  4036b8: 48 8d 3d 81 4a 00 00         	leaq	19073(%rip), %rdi       # 0x408140 <_ZSt4cout>
  4036bf: e8 ec eb ff ff               	callq	0x4022b0 <.plt.sec+0xa0>
  4036c4: 90                           	nop
  4036c5: 5d                           	popq	%rbp
  4036c6: c3                           	retq
  4036c7: f3 0f 1e fa                  	endbr64
  4036cb: 55                           	pushq	%rbp
  4036cc: 48 89 e5                     	movq	%rsp, %rbp
  4036cf: 48 83 ec 10                  	subq	$16, %rsp
  4036d3: 64 48 8b 04 25 28 00 00 00   	movq	%fs:40, %rax
  4036dc: 48 89 45 f8                  	movq	%rax, -8(%rbp)
  4036e0: 31 c0                        	xorl	%eax, %eax
  4036e2: 48 8b 05 f7 48 00 00         	movq	18679(%rip), %rax       # 0x407fe0
  4036e9: 48 89 c6                     	movq	%rax, %rsi
  4036ec: 48 8d 3d 4d 4a 00 00         	leaq	19021(%rip), %rdi       # 0x408140 <_ZSt4cout>
  4036f3: e8 e8 eb ff ff               	callq	0x4022e0 <.plt.sec+0xd0>
  4036f8: 48 8d 35 e1 0b 00 00         	leaq	3041(%rip), %rsi        # 0x4042e0
  4036ff: 48 8d 3d 3a 4a 00 00         	leaq	19002(%rip), %rdi       # 0x408140 <_ZSt4cout>
  403706: e8 a5 eb ff ff               	callq	0x4022b0 <.plt.sec+0xa0>
  40370b: e8 3c 08 00 00               	callq	0x403f4c <.text+0x1b5c>
  403710: ba 0a 00 00 00               	movl	$10, %edx
  403715: 48 89 c6                     	movq	%rax, %rsi
  403718: 48 8d 3d 41 4b 00 00         	leaq	19265(%rip), %rdi       # 0x408260 <_ZSt3cin>
  40371f: e8 5c eb ff ff               	callq	0x402280 <.plt.sec+0x70>
  403724: 48 8d 45 f7                  	leaq	-9(%rbp), %rax
  403728: 48 89 c6                     	movq	%rax, %rsi
  40372b: 48 8d 3d 2e 4b 00 00         	leaq	19246(%rip), %rdi       # 0x408260 <_ZSt3cin>
  403732: e8 09 ec ff ff               	callq	0x402340 <.plt.sec+0x130>
  403737: 90                           	nop
  403738: 48 8b 45 f8                  	movq	-8(%rbp), %rax
  40373c: 64 48 33 04 25 28 00 00 00   	xorq	%fs:40, %rax
  403745: 74 05                        	je	0x40374c <.text+0x135c>
  403747: e8 b4 eb ff ff               	callq	0x402300 <.plt.sec+0xf0>
  40374c: c9                           	leave
  40374d: c3                           	retq
  40374e: f3 0f 1e fa                  	endbr64
  403752: 55                           	pushq	%rbp
  403753: 48 89 e5                     	movq	%rsp, %rbp
  403756: 41 54                        	pushq	%r12
  403758: 53                           	pushq	%rbx
  403759: 48 83 ec 10                  	subq	$16, %rsp
  40375d: 48 89 7d e8                  	movq	%rdi, -24(%rbp)
  403761: bf 50 00 00 00               	movl	$80, %edi
  403766: e8 55 eb ff ff               	callq	0x4022c0 <.plt.sec+0xb0>
  40376b: 48 89 c3                     	movq	%rax, %rbx
  40376e: 48 8b 45 e8                  	movq	-24(%rbp), %rax
  403772: 48 89 c6                     	movq	%rax, %rsi
  403775: 48 89 df                     	movq	%rbx, %rdi
  403778: e8 69 f9 ff ff               	callq	0x4030e6 <.text+0xcf6>
  40377d: 48 89 d8                     	movq	%rbx, %rax
  403780: eb 1f                        	jmp	0x4037a1 <.text+0x13b1>
  403782: f3 0f 1e fa                  	endbr64
  403786: 49 89 c4                     	movq	%rax, %r12
  403789: be 50 00 00 00               	movl	$80, %esi
  40378e: 48 89 df                     	movq	%rbx, %rdi
  403791: e8 3a eb ff ff               	callq	0x4022d0 <.plt.sec+0xc0>
  403796: 4c 89 e0                     	movq	%r12, %rax
  403799: 48 89 c7                     	movq	%rax, %rdi
  40379c: e8 1f ec ff ff               	callq	0x4023c0 <.plt.sec+0x1b0>
  4037a1: 48 83 c4 10                  	addq	$16, %rsp
  4037a5: 5b                           	popq	%rbx
  4037a6: 41 5c                        	popq	%r12
  4037a8: 5d                           	popq	%rbp
  4037a9: c3                           	retq
  4037aa: f3 0f 1e fa                  	endbr64
  4037ae: 55                           	pushq	%rbp
  4037af: 48 89 e5                     	movq	%rsp, %rbp
  4037b2: e8 f2 fe ff ff               	callq	0x4036a9 <.text+0x12b9>
  4037b7: 48 8d 35 52 0b 00 00         	leaq	2898(%rip), %rsi        # 0x404310
  4037be: 48 8d 3d 7b 49 00 00         	leaq	18811(%rip), %rdi       # 0x408140 <_ZSt4cout>
  4037c5: e8 e6 ea ff ff               	callq	0x4022b0 <.plt.sec+0xa0>
  4037ca: e8 16 00 00 00               	callq	0x4037e5 <.text+0x13f5>
  4037cf: 48 8d 35 aa 0f 00 00         	leaq	4010(%rip), %rsi        # 0x404780
  4037d6: 48 8d 3d 63 49 00 00         	leaq	18787(%rip), %rdi       # 0x408140 <_ZSt4cout>
  4037dd: e8 ce ea ff ff               	callq	0x4022b0 <.plt.sec+0xa0>
  4037e2: 90                           	nop
  4037e3: 5d                           	popq	%rbp
  4037e4: c3                           	retq
  4037e5: f3 0f 1e fa                  	endbr64
  4037e9: 55                           	pushq	%rbp
  4037ea: 48 89 e5                     	movq	%rsp, %rbp
  4037ed: 48 83 ec 10                  	subq	$16, %rsp
  4037f1: 48 8b 05 b8 72 00 00         	movq	29368(%rip), %rax       # 0x40aab0 <_ZSt3cin+0x2850>
  4037f8: 48 85 c0                     	testq	%rax, %rax
  4037fb: 74 78                        	je	0x403875 <.text+0x1485>
  4037fd: 48 8d 35 fc 11 00 00         	leaq	4604(%rip), %rsi        # 0x404a00
  403804: 48 8d 3d 35 49 00 00         	leaq	18741(%rip), %rdi       # 0x408140 <_ZSt4cout>
  40380b: e8 a0 ea ff ff               	callq	0x4022b0 <.plt.sec+0xa0>
  403810: 48 89 c2                     	movq	%rax, %rdx
  403813: 48 8b 05 c6 47 00 00         	movq	18374(%rip), %rax       # 0x407fe0
  40381a: 48 89 c6                     	movq	%rax, %rsi
  40381d: 48 89 d7                     	movq	%rdx, %rdi
  403820: e8 bb ea ff ff               	callq	0x4022e0 <.plt.sec+0xd0>
  403825: c7 45 fc 00 00 00 00         	movl	$0, -4(%rbp)
  40382c: 83 7d fc 02                  	cmpl	$2, -4(%rbp)
  403830: 7f 47                        	jg	0x403879 <.text+0x1489>
  403832: 8b 45 fc                     	movl	-4(%rbp), %eax
  403835: 48 98                        	cltq
  403837: 48 8d 14 c5 00 00 00 00      	leaq	(,%rax,8), %rdx
  40383f: 48 8d 05 6a 72 00 00         	leaq	29290(%rip), %rax       # 0x40aab0 <_ZSt3cin+0x2850>
  403846: 48 8b 04 02                  	movq	(%rdx,%rax), %rax
  40384a: 48 85 c0                     	testq	%rax, %rax
  40384d: 74 29                        	je	0x403878 <.text+0x1488>
  40384f: 8b 45 fc                     	movl	-4(%rbp), %eax
  403852: 48 98                        	cltq
  403854: 48 8d 14 c5 00 00 00 00      	leaq	(,%rax,8), %rdx
  40385c: 48 8d 05 4d 72 00 00         	leaq	29261(%rip), %rax       # 0x40aab0 <_ZSt3cin+0x2850>
  403863: 48 8b 04 02                  	movq	(%rdx,%rax), %rax
  403867: 48 89 c7                     	movq	%rax, %rdi
  40386a: e8 c7 ec ff ff               	callq	0x402536 <.text+0x146>
  40386f: 83 45 fc 01                  	addl	$1, -4(%rbp)
  403873: eb b7                        	jmp	0x40382c <.text+0x143c>
  403875: 90                           	nop
  403876: eb 01                        	jmp	0x403879 <.text+0x1489>
  403878: 90                           	nop
  403879: c9                           	leave
  40387a: c3                           	retq
  40387b: f3 0f 1e fa                  	endbr64
  40387f: 55                           	pushq	%rbp
  403880: 48 89 e5                     	movq	%rsp, %rbp
  403883: e8 21 fe ff ff               	callq	0x4036a9 <.text+0x12b9>
  403888: 48 8d 35 99 11 00 00         	leaq	4505(%rip), %rsi        # 0x404a28
  40388f: 48 8d 3d aa 48 00 00         	leaq	18602(%rip), %rdi       # 0x408140 <_ZSt4cout>
  403896: e8 15 ea ff ff               	callq	0x4022b0 <.plt.sec+0xa0>
  40389b: e8 27 fe ff ff               	callq	0x4036c7 <.text+0x12d7>
  4038a0: 90                           	nop
  4038a1: 5d                           	popq	%rbp
  4038a2: c3                           	retq
  4038a3: f3 0f 1e fa                  	endbr64
  4038a7: 55                           	pushq	%rbp
  4038a8: 48 89 e5                     	movq	%rsp, %rbp
  4038ab: e8 f9 fd ff ff               	callq	0x4036a9 <.text+0x12b9>
  4038b0: 48 8d 35 11 13 00 00         	leaq	4881(%rip), %rsi        # 0x404bc8
  4038b7: 48 8d 3d 82 48 00 00         	leaq	18562(%rip), %rdi       # 0x408140 <_ZSt4cout>
  4038be: e8 ed e9 ff ff               	callq	0x4022b0 <.plt.sec+0xa0>
  4038c3: e8 ff fd ff ff               	callq	0x4036c7 <.text+0x12d7>
  4038c8: 90                           	nop
  4038c9: 5d                           	popq	%rbp
  4038ca: c3                           	retq
  4038cb: f3 0f 1e fa                  	endbr64
  4038cf: 55                           	pushq	%rbp
  4038d0: 48 89 e5                     	movq	%rsp, %rbp
  4038d3: 53                           	pushq	%rbx
  4038d4: 48 83 ec 48                  	subq	$72, %rsp
  4038d8: 64 48 8b 04 25 28 00 00 00   	movq	%fs:40, %rax
  4038e1: 48 89 45 e8                  	movq	%rax, -24(%rbp)
  4038e5: 31 c0                        	xorl	%eax, %eax
  4038e7: e8 32 05 00 00               	callq	0x403e1e <.text+0x1a2e>
  4038ec: 84 c0                        	testb	%al, %al
  4038ee: 74 0a                        	je	0x4038fa <.text+0x150a>
  4038f0: e8 86 ff ff ff               	callq	0x40387b <.text+0x148b>
  4038f5: e9 d6 00 00 00               	jmp	0x4039d0 <.text+0x15e0>
  4038fa: e8 aa fd ff ff               	callq	0x4036a9 <.text+0x12b9>
  4038ff: 48 8d 35 62 14 00 00         	leaq	5218(%rip), %rsi        # 0x404d68
  403906: 48 8d 3d 33 48 00 00         	leaq	18483(%rip), %rdi       # 0x408140 <_ZSt4cout>
  40390d: e8 9e e9 ff ff               	callq	0x4022b0 <.plt.sec+0xa0>
  403912: 48 8d 35 ed 15 00 00         	leaq	5613(%rip), %rsi        # 0x404f06
  403919: 48 8d 3d 20 48 00 00         	leaq	18464(%rip), %rdi       # 0x408140 <_ZSt4cout>
  403920: e8 8b e9 ff ff               	callq	0x4022b0 <.plt.sec+0xa0>
  403925: 48 8d 45 c0                  	leaq	-64(%rbp), %rax
  403929: 48 89 c7                     	movq	%rax, %rdi
  40392c: e8 1f ea ff ff               	callq	0x402350 <.plt.sec+0x140>
  403931: 48 8d 45 c0                  	leaq	-64(%rbp), %rax
  403935: 48 89 c6                     	movq	%rax, %rsi
  403938: 48 8d 3d 21 49 00 00         	leaq	18721(%rip), %rdi       # 0x408260 <_ZSt3cin>
  40393f: e8 dc e9 ff ff               	callq	0x402320 <.plt.sec+0x110>
  403944: c7 45 bc 00 00 00 00         	movl	$0, -68(%rbp)
  40394b: 83 7d bc 02                  	cmpl	$2, -68(%rbp)
  40394f: 7f 53                        	jg	0x4039a4 <.text+0x15b4>
  403951: 8b 45 bc                     	movl	-68(%rbp), %eax
  403954: 48 98                        	cltq
  403956: 48 8d 14 c5 00 00 00 00      	leaq	(,%rax,8), %rdx
  40395e: 48 8d 05 4b 71 00 00         	leaq	29003(%rip), %rax       # 0x40aab0 <_ZSt3cin+0x2850>
  403965: 48 8b 04 02                  	movq	(%rdx,%rax), %rax
  403969: 48 85 c0                     	testq	%rax, %rax
  40396c: 75 2f                        	jne	0x40399d <.text+0x15ad>
  40396e: 48 8d 45 c0                  	leaq	-64(%rbp), %rax
  403972: 48 89 c7                     	movq	%rax, %rdi
  403975: e8 d6 e8 ff ff               	callq	0x402250 <.plt.sec+0x40>
  40397a: 48 89 c7                     	movq	%rax, %rdi
  40397d: e8 cc fd ff ff               	callq	0x40374e <.text+0x135e>
  403982: 8b 55 bc                     	movl	-68(%rbp), %edx
  403985: 48 63 d2                     	movslq	%edx, %rdx
  403988: 48 8d 0c d5 00 00 00 00      	leaq	(,%rdx,8), %rcx
  403990: 48 8d 15 19 71 00 00         	leaq	28953(%rip), %rdx       # 0x40aab0 <_ZSt3cin+0x2850>
  403997: 48 89 04 11                  	movq	%rax, (%rcx,%rdx)
  40399b: eb 07                        	jmp	0x4039a4 <.text+0x15b4>
  40399d: 90                           	nop
  40399e: 83 45 bc 01                  	addl	$1, -68(%rbp)
  4039a2: eb a7                        	jmp	0x40394b <.text+0x155b>
  4039a4: 48 8d 45 c0                  	leaq	-64(%rbp), %rax
  4039a8: 48 89 c7                     	movq	%rax, %rdi
  4039ab: e8 c0 e8 ff ff               	callq	0x402270 <.plt.sec+0x60>
  4039b0: eb 1e                        	jmp	0x4039d0 <.text+0x15e0>
  4039b2: f3 0f 1e fa                  	endbr64
  4039b6: 48 89 c3                     	movq	%rax, %rbx
  4039b9: 48 8d 45 c0                  	leaq	-64(%rbp), %rax
  4039bd: 48 89 c7                     	movq	%rax, %rdi
  4039c0: e8 ab e8 ff ff               	callq	0x402270 <.plt.sec+0x60>
  4039c5: 48 89 d8                     	movq	%rbx, %rax
  4039c8: 48 89 c7                     	movq	%rax, %rdi
  4039cb: e8 f0 e9 ff ff               	callq	0x4023c0 <.plt.sec+0x1b0>
  4039d0: 48 8b 45 e8                  	movq	-24(%rbp), %rax
  4039d4: 64 48 33 04 25 28 00 00 00   	xorq	%fs:40, %rax
  4039dd: 74 05                        	je	0x4039e4 <.text+0x15f4>
  4039df: e8 1c e9 ff ff               	callq	0x402300 <.plt.sec+0xf0>
  4039e4: 48 83 c4 48                  	addq	$72, %rsp
  4039e8: 5b                           	popq	%rbx
  4039e9: 5d                           	popq	%rbp
  4039ea: c3                           	retq
  4039eb: f3 0f 1e fa                  	endbr64
  4039ef: 55                           	pushq	%rbp
  4039f0: 48 89 e5                     	movq	%rsp, %rbp
  4039f3: 48 83 ec 10                  	subq	$16, %rsp
  4039f7: 64 48 8b 04 25 28 00 00 00   	movq	%fs:40, %rax
  403a00: 48 89 45 f8                  	movq	%rax, -8(%rbp)
  403a04: 31 c0                        	xorl	%eax, %eax
  403a06: e8 9e fc ff ff               	callq	0x4036a9 <.text+0x12b9>
  403a0b: e8 25 04 00 00               	callq	0x403e35 <.text+0x1a45>
  403a10: 84 c0                        	testb	%al, %al
  403a12: 74 0a                        	je	0x403a1e <.text+0x162e>
  403a14: e8 8a fe ff ff               	callq	0x4038a3 <.text+0x14b3>
  403a19: e9 75 01 00 00               	jmp	0x403b93 <.text+0x17a3>
  403a1e: 48 8d 35 eb 14 00 00         	leaq	5355(%rip), %rsi        # 0x404f10
  403a25: 48 8d 3d 14 47 00 00         	leaq	18196(%rip), %rdi       # 0x408140 <_ZSt4cout>
  403a2c: e8 7f e8 ff ff               	callq	0x4022b0 <.plt.sec+0xa0>
  403a31: c7 45 f4 00 00 00 00         	movl	$0, -12(%rbp)
  403a38: 83 7d f4 02                  	cmpl	$2, -12(%rbp)
  403a3c: 0f 8f 9b 00 00 00            	jg	0x403add <.text+0x16ed>
  403a42: 8b 45 f4                     	movl	-12(%rbp), %eax
  403a45: 48 98                        	cltq
  403a47: 48 8d 14 c5 00 00 00 00      	leaq	(,%rax,8), %rdx
  403a4f: 48 8d 05 5a 70 00 00         	leaq	28762(%rip), %rax       # 0x40aab0 <_ZSt3cin+0x2850>
  403a56: 48 8b 04 02                  	movq	(%rdx,%rax), %rax
  403a5a: 48 85 c0                     	testq	%rax, %rax
  403a5d: 74 7d                        	je	0x403adc <.text+0x16ec>
  403a5f: 48 8d 35 48 16 00 00         	leaq	5704(%rip), %rsi        # 0x4050ae
  403a66: 48 8d 3d d3 46 00 00         	leaq	18131(%rip), %rdi       # 0x408140 <_ZSt4cout>
  403a6d: e8 3e e8 ff ff               	callq	0x4022b0 <.plt.sec+0xa0>
  403a72: 48 89 c2                     	movq	%rax, %rdx
  403a75: 8b 45 f4                     	movl	-12(%rbp), %eax
  403a78: 83 c0 01                     	addl	$1, %eax
  403a7b: 89 c6                        	movl	%eax, %esi
  403a7d: 48 89 d7                     	movq	%rdx, %rdi
  403a80: e8 2b e9 ff ff               	callq	0x4023b0 <.plt.sec+0x1a0>
  403a85: 48 8d 35 26 16 00 00         	leaq	5670(%rip), %rsi        # 0x4050b2
  403a8c: 48 89 c7                     	movq	%rax, %rdi
  403a8f: e8 1c e8 ff ff               	callq	0x4022b0 <.plt.sec+0xa0>
  403a94: 48 89 c2                     	movq	%rax, %rdx
  403a97: 8b 45 f4                     	movl	-12(%rbp), %eax
  403a9a: 48 98                        	cltq
  403a9c: 48 8d 0c c5 00 00 00 00      	leaq	(,%rax,8), %rcx
  403aa4: 48 8d 05 05 70 00 00         	leaq	28677(%rip), %rax       # 0x40aab0 <_ZSt3cin+0x2850>
  403aab: 48 8b 04 01                  	movq	(%rcx,%rax), %rax
  403aaf: 48 83 c0 08                  	addq	$8, %rax
  403ab3: 48 89 c6                     	movq	%rax, %rsi
  403ab6: 48 89 d7                     	movq	%rdx, %rdi
  403ab9: e8 f2 e7 ff ff               	callq	0x4022b0 <.plt.sec+0xa0>
  403abe: 48 89 c2                     	movq	%rax, %rdx
  403ac1: 48 8b 05 18 45 00 00         	movq	17688(%rip), %rax       # 0x407fe0
  403ac8: 48 89 c6                     	movq	%rax, %rsi
  403acb: 48 89 d7                     	movq	%rdx, %rdi
  403ace: e8 0d e8 ff ff               	callq	0x4022e0 <.plt.sec+0xd0>
  403ad3: 83 45 f4 01                  	addl	$1, -12(%rbp)
  403ad7: e9 5c ff ff ff               	jmp	0x403a38 <.text+0x1648>
  403adc: 90                           	nop
  403add: 48 8b 05 fc 44 00 00         	movq	17660(%rip), %rax       # 0x407fe0
  403ae4: 48 89 c6                     	movq	%rax, %rsi
  403ae7: 48 8d 3d 52 46 00 00         	leaq	18002(%rip), %rdi       # 0x408140 <_ZSt4cout>
  403aee: e8 ed e7 ff ff               	callq	0x4022e0 <.plt.sec+0xd0>
  403af3: c7 45 f0 00 00 00 00         	movl	$0, -16(%rbp)
  403afa: 48 8d 35 b4 15 00 00         	leaq	5556(%rip), %rsi        # 0x4050b5
  403b01: 48 8d 3d 38 46 00 00         	leaq	17976(%rip), %rdi       # 0x408140 <_ZSt4cout>
  403b08: e8 a3 e7 ff ff               	callq	0x4022b0 <.plt.sec+0xa0>
  403b0d: 48 8d 45 f0                  	leaq	-16(%rbp), %rax
  403b11: 48 89 c6                     	movq	%rax, %rsi
  403b14: 48 8d 3d 45 47 00 00         	leaq	18245(%rip), %rdi       # 0x408260 <_ZSt3cin>
  403b1b: e8 40 e7 ff ff               	callq	0x402260 <.plt.sec+0x50>
  403b20: 8b 45 f0                     	movl	-16(%rbp), %eax
  403b23: 85 c0                        	testl	%eax, %eax
  403b25: 7e d3                        	jle	0x403afa <.text+0x170a>
  403b27: 8b 45 f0                     	movl	-16(%rbp), %eax
  403b2a: 83 f8 03                     	cmpl	$3, %eax
  403b2d: 7f cb                        	jg	0x403afa <.text+0x170a>
  403b2f: 8b 45 f0                     	movl	-16(%rbp), %eax
  403b32: 83 e8 01                     	subl	$1, %eax
  403b35: 48 98                        	cltq
  403b37: 48 8d 14 c5 00 00 00 00      	leaq	(,%rax,8), %rdx
  403b3f: 48 8d 05 6a 6f 00 00         	leaq	28522(%rip), %rax       # 0x40aab0 <_ZSt3cin+0x2850>
  403b46: 48 8b 04 02                  	movq	(%rdx,%rax), %rax
  403b4a: 48 85 c0                     	testq	%rax, %rax
  403b4d: 75 02                        	jne	0x403b51 <.text+0x1761>
  403b4f: eb a9                        	jmp	0x403afa <.text+0x170a>
  403b51: 90                           	nop
  403b52: 48 8d 35 ad 13 00 00         	leaq	5037(%rip), %rsi        # 0x404f06
  403b59: 48 8d 3d e0 45 00 00         	leaq	17888(%rip), %rdi       # 0x408140 <_ZSt4cout>
  403b60: e8 4b e7 ff ff               	callq	0x4022b0 <.plt.sec+0xa0>
  403b65: 8b 45 f0                     	movl	-16(%rbp), %eax
  403b68: 83 e8 01                     	subl	$1, %eax
  403b6b: 48 98                        	cltq
  403b6d: 48 8d 14 c5 00 00 00 00      	leaq	(,%rax,8), %rdx
  403b75: 48 8d 05 34 6f 00 00         	leaq	28468(%rip), %rax       # 0x40aab0 <_ZSt3cin+0x2850>
  403b7c: 48 8b 04 02                  	movq	(%rdx,%rax), %rax
  403b80: 48 83 c0 08                  	addq	$8, %rax
  403b84: 48 89 c6                     	movq	%rax, %rsi
  403b87: 48 8d 3d d2 46 00 00         	leaq	18130(%rip), %rdi       # 0x408260 <_ZSt3cin>
  403b8e: e8 9d e6 ff ff               	callq	0x402230 <.plt.sec+0x20>
  403b93: 48 8b 45 f8                  	movq	-8(%rbp), %rax
  403b97: 64 48 33 04 25 28 00 00 00   	xorq	%fs:40, %rax
  403ba0: 74 05                        	je	0x403ba7 <.text+0x17b7>
  403ba2: e8 59 e7 ff ff               	callq	0x402300 <.plt.sec+0xf0>
  403ba7: c9                           	leave
  403ba8: c3                           	retq
  403ba9: f3 0f 1e fa                  	endbr64
  403bad: 55                           	pushq	%rbp
  403bae: 48 89 e5                     	movq	%rsp, %rbp
  403bb1: 48 8d 35 10 15 00 00         	leaq	5392(%rip), %rsi        # 0x4050c8
  403bb8: 48 8d 3d 81 45 00 00         	leaq	17793(%rip), %rdi       # 0x408140 <_ZSt4cout>
  403bbf: e8 ec e6 ff ff               	callq	0x4022b0 <.plt.sec+0xa0>
  403bc4: 90                           	nop
  403bc5: 5d                           	popq	%rbp
  403bc6: c3                           	retq
  403bc7: f3 0f 1e fa                  	endbr64
  403bcb: 55                           	pushq	%rbp
  403bcc: 48 89 e5                     	movq	%rsp, %rbp
  403bcf: 53                           	pushq	%rbx
  403bd0: 48 81 ec 28 02 00 00         	subq	$552, %rsp              # imm = 0x228
  403bd7: 64 48 8b 04 25 28 00 00 00   	movq	%fs:40, %rax
  403be0: 48 89 45 e8                  	movq	%rax, -24(%rbp)
  403be4: 31 c0                        	xorl	%eax, %eax
  403be6: e8 be fa ff ff               	callq	0x4036a9 <.text+0x12b9>
  403beb: e8 b9 ff ff ff               	callq	0x403ba9 <.text+0x17b9>
  403bf0: c7 85 dc fd ff ff 00 00 00 00	movl	$0, -548(%rbp)
  403bfa: 83 bd dc fd ff ff 02         	cmpl	$2, -548(%rbp)
  403c01: 0f 8f 92 01 00 00            	jg	0x403d99 <.text+0x19a9>
  403c07: 8b 85 dc fd ff ff            	movl	-548(%rbp), %eax
  403c0d: 48 98                        	cltq
  403c0f: 48 8d 14 c5 00 00 00 00      	leaq	(,%rax,8), %rdx
  403c17: 48 8d 05 92 6e 00 00         	leaq	28306(%rip), %rax       # 0x40aab0 <_ZSt3cin+0x2850>
  403c1e: 48 8b 04 02                  	movq	(%rdx,%rax), %rax
  403c22: 48 85 c0                     	testq	%rax, %rax
  403c25: 0f 84 6d 01 00 00            	je	0x403d98 <.text+0x19a8>
  403c2b: 8b 85 dc fd ff ff            	movl	-548(%rbp), %eax
  403c31: 48 98                        	cltq
  403c33: 48 8d 14 c5 00 00 00 00      	leaq	(,%rax,8), %rdx
  403c3b: 48 8d 05 6e 6e 00 00         	leaq	28270(%rip), %rax       # 0x40aab0 <_ZSt3cin+0x2850>
  403c42: 48 8b 04 02                  	movq	(%rdx,%rax), %rax
  403c46: 8b 95 dc fd ff ff            	movl	-548(%rbp), %edx
  403c4c: 48 63 d2                     	movslq	%edx, %rdx
  403c4f: 48 8d 0c d5 00 00 00 00      	leaq	(,%rdx,8), %rcx
  403c57: 48 8d 15 52 6e 00 00         	leaq	28242(%rip), %rdx       # 0x40aab0 <_ZSt3cin+0x2850>
  403c5e: 48 8b 14 11                  	movq	(%rcx,%rdx), %rdx
  403c62: 48 8b 12                     	movq	(%rdx), %rdx
  403c65: 48 8b 12                     	movq	(%rdx), %rdx
  403c68: 48 89 c7                     	movq	%rax, %rdi
  403c6b: ff d2                        	callq	*%rdx
  403c6d: 83 f8 05                     	cmpl	$5, %eax
  403c70: 75 51                        	jne	0x403cc3 <.text+0x18d3>
  403c72: 8b 85 dc fd ff ff            	movl	-548(%rbp), %eax
  403c78: 48 98                        	cltq
  403c7a: 48 8d 14 c5 00 00 00 00      	leaq	(,%rax,8), %rdx
  403c82: 48 8d 05 27 6e 00 00         	leaq	28199(%rip), %rax       # 0x40aab0 <_ZSt3cin+0x2850>
  403c89: 48 8b 04 02                  	movq	(%rdx,%rax), %rax
  403c8d: 8b 95 dc fd ff ff            	movl	-548(%rbp), %edx
  403c93: 48 63 d2                     	movslq	%edx, %rdx
  403c96: 48 8d 0c d5 00 00 00 00      	leaq	(,%rdx,8), %rcx
  403c9e: 48 8d 15 0b 6e 00 00         	leaq	28171(%rip), %rdx       # 0x40aab0 <_ZSt3cin+0x2850>
  403ca5: 48 8b 14 11                  	movq	(%rcx,%rdx), %rdx
  403ca9: 48 8b 12                     	movq	(%rdx), %rdx
  403cac: 48 83 c2 08                  	addq	$8, %rdx
  403cb0: 48 8b 12                     	movq	(%rdx), %rdx
  403cb3: 48 89 c7                     	movq	%rax, %rdi
  403cb6: ff d2                        	callq	*%rdx
  403cb8: 3c ff                        	cmpb	$-1, %al
  403cba: 75 07                        	jne	0x403cc3 <.text+0x18d3>
  403cbc: b8 01 00 00 00               	movl	$1, %eax
  403cc1: eb 05                        	jmp	0x403cc8 <.text+0x18d8>
  403cc3: b8 00 00 00 00               	movl	$0, %eax
  403cc8: 84 c0                        	testb	%al, %al
  403cca: 0f 84 bc 00 00 00            	je	0x403d8c <.text+0x199c>
  403cd0: 48 8b 05 09 43 00 00         	movq	17161(%rip), %rax       # 0x407fe0
  403cd7: 48 89 c6                     	movq	%rax, %rsi
  403cda: 48 8d 3d 5f 44 00 00         	leaq	17503(%rip), %rdi       # 0x408140 <_ZSt4cout>
  403ce1: e8 fa e5 ff ff               	callq	0x4022e0 <.plt.sec+0xd0>
  403ce6: 48 8d 35 9b 1a 00 00         	leaq	6811(%rip), %rsi        # 0x405788
  403ced: 48 8d 3d 4c 44 00 00         	leaq	17484(%rip), %rdi       # 0x408140 <_ZSt4cout>
  403cf4: e8 b7 e5 ff ff               	callq	0x4022b0 <.plt.sec+0xa0>
  403cf9: 48 89 c2                     	movq	%rax, %rdx
  403cfc: 48 8b 05 dd 42 00 00         	movq	17117(%rip), %rax       # 0x407fe0
  403d03: 48 89 c6                     	movq	%rax, %rsi
  403d06: 48 89 d7                     	movq	%rdx, %rdi
  403d09: e8 d2 e5 ff ff               	callq	0x4022e0 <.plt.sec+0xd0>
  403d0e: 48 8d 85 e0 fd ff ff         	leaq	-544(%rbp), %rax
  403d15: ba 08 00 00 00               	movl	$8, %edx
  403d1a: 48 8d 35 8f 1a 00 00         	leaq	6799(%rip), %rsi        # 0x4057b0
  403d21: 48 89 c7                     	movq	%rax, %rdi
  403d24: e8 b7 e6 ff ff               	callq	0x4023e0 <.plt.sec+0x1d0>
  403d29: 48 8d 35 a1 1a 00 00         	leaq	6817(%rip), %rsi        # 0x4057d1
  403d30: 48 8d 3d 09 44 00 00         	leaq	17417(%rip), %rdi       # 0x408140 <_ZSt4cout>
  403d37: e8 74 e5 ff ff               	callq	0x4022b0 <.plt.sec+0xa0>
  403d3c: 48 89 c3                     	movq	%rax, %rbx
  403d3f: 48 8d 85 e0 fd ff ff         	leaq	-544(%rbp), %rax
  403d46: 48 89 c7                     	movq	%rax, %rdi
  403d49: e8 32 e6 ff ff               	callq	0x402380 <.plt.sec+0x170>
  403d4e: 48 89 c6                     	movq	%rax, %rsi
  403d51: 48 89 df                     	movq	%rbx, %rdi
  403d54: e8 c7 e4 ff ff               	callq	0x402220 <.plt.sec+0x10>
  403d59: 48 89 c2                     	movq	%rax, %rdx
  403d5c: 48 8b 05 7d 42 00 00         	movq	17021(%rip), %rax       # 0x407fe0
  403d63: 48 89 c6                     	movq	%rax, %rsi
  403d66: 48 89 d7                     	movq	%rdx, %rdi
  403d69: e8 72 e5 ff ff               	callq	0x4022e0 <.plt.sec+0xd0>
  403d6e: 48 8d 85 e0 fd ff ff         	leaq	-544(%rbp), %rax
  403d75: 48 89 c7                     	movq	%rax, %rdi
  403d78: e8 93 e4 ff ff               	callq	0x402210 <.plt.sec>
  403d7d: e8 45 f9 ff ff               	callq	0x4036c7 <.text+0x12d7>
  403d82: bf 00 00 00 00               	movl	$0, %edi
  403d87: e8 84 e5 ff ff               	callq	0x402310 <.plt.sec+0x100>
  403d8c: 83 85 dc fd ff ff 01         	addl	$1, -548(%rbp)
  403d93: e9 62 fe ff ff               	jmp	0x403bfa <.text+0x180a>
  403d98: 90                           	nop
  403d99: 48 8b 05 40 42 00 00         	movq	16960(%rip), %rax       # 0x407fe0
  403da0: 48 89 c6                     	movq	%rax, %rsi
  403da3: 48 8d 3d 96 43 00 00         	leaq	17302(%rip), %rdi       # 0x408140 <_ZSt4cout>
  403daa: e8 31 e5 ff ff               	callq	0x4022e0 <.plt.sec+0xd0>
  403daf: 48 8d 35 2a 1a 00 00         	leaq	6698(%rip), %rsi        # 0x4057e0
  403db6: 48 8d 3d 83 43 00 00         	leaq	17283(%rip), %rdi       # 0x408140 <_ZSt4cout>
  403dbd: e8 ee e4 ff ff               	callq	0x4022b0 <.plt.sec+0xa0>
  403dc2: 48 89 c2                     	movq	%rax, %rdx
  403dc5: 48 8b 05 14 42 00 00         	movq	16916(%rip), %rax       # 0x407fe0
  403dcc: 48 89 c6                     	movq	%rax, %rsi
  403dcf: 48 89 d7                     	movq	%rdx, %rdi
  403dd2: e8 09 e5 ff ff               	callq	0x4022e0 <.plt.sec+0xd0>
  403dd7: e8 eb f8 ff ff               	callq	0x4036c7 <.text+0x12d7>
  403ddc: 90                           	nop
  403ddd: 48 8b 45 e8                  	movq	-24(%rbp), %rax
  403de1: 64 48 33 04 25 28 00 00 00   	xorq	%fs:40, %rax
  403dea: 74 28                        	je	0x403e14 <.text+0x1a24>
  403dec: eb 21                        	jmp	0x403e0f <.text+0x1a1f>
  403dee: f3 0f 1e fa                  	endbr64
  403df2: 48 89 c3                     	movq	%rax, %rbx
  403df5: 48 8d 85 e0 fd ff ff         	leaq	-544(%rbp), %rax
  403dfc: 48 89 c7                     	movq	%rax, %rdi
  403dff: e8 3c e4 ff ff               	callq	0x402240 <.plt.sec+0x30>
  403e04: 48 89 d8                     	movq	%rbx, %rax
  403e07: 48 89 c7                     	movq	%rax, %rdi
  403e0a: e8 b1 e5 ff ff               	callq	0x4023c0 <.plt.sec+0x1b0>
  403e0f: e8 ec e4 ff ff               	callq	0x402300 <.plt.sec+0xf0>
  403e14: 48 81 c4 28 02 00 00         	addq	$552, %rsp              # imm = 0x228
  403e1b: 5b                           	popq	%rbx
  403e1c: 5d                           	popq	%rbp
  403e1d: c3                           	retq
  403e1e: f3 0f 1e fa                  	endbr64
  403e22: 55                           	pushq	%rbp
  403e23: 48 89 e5                     	movq	%rsp, %rbp
  403e26: 48 8b 05 93 6c 00 00         	movq	27795(%rip), %rax       # 0x40aac0 <_ZSt3cin+0x2860>
  403e2d: 48 85 c0                     	testq	%rax, %rax
  403e30: 0f 95 c0                     	setne	%al
  403e33: 5d                           	popq	%rbp
  403e34: c3                           	retq
  403e35: f3 0f 1e fa                  	endbr64
  403e39: 55                           	pushq	%rbp
  403e3a: 48 89 e5                     	movq	%rsp, %rbp
  403e3d: 48 8b 05 6c 6c 00 00         	movq	27756(%rip), %rax       # 0x40aab0 <_ZSt3cin+0x2850>
  403e44: 48 85 c0                     	testq	%rax, %rax
  403e47: 0f 94 c0                     	sete	%al
  403e4a: 5d                           	popq	%rbp
  403e4b: c3                           	retq
  403e4c: f3 0f 1e fa                  	endbr64
  403e50: 55                           	pushq	%rbp
  403e51: 48 89 e5                     	movq	%rsp, %rbp
  403e54: 48 83 ec 10                  	subq	$16, %rsp
  403e58: 64 48 8b 04 25 28 00 00 00   	movq	%fs:40, %rax
  403e61: 48 89 45 f8                  	movq	%rax, -8(%rbp)
  403e65: 31 c0                        	xorl	%eax, %eax
  403e67: c7 45 f4 00 00 00 00         	movl	$0, -12(%rbp)
  403e6e: e8 37 f9 ff ff               	callq	0x4037aa <.text+0x13ba>
  403e73: 48 8d 35 3b 12 00 00         	leaq	4667(%rip), %rsi        # 0x4050b5
  403e7a: 48 8d 3d bf 42 00 00         	leaq	17087(%rip), %rdi       # 0x408140 <_ZSt4cout>
  403e81: e8 2a e4 ff ff               	callq	0x4022b0 <.plt.sec+0xa0>
  403e86: 48 8d 45 f4                  	leaq	-12(%rbp), %rax
  403e8a: 48 89 c6                     	movq	%rax, %rsi
  403e8d: 48 8d 3d cc 43 00 00         	leaq	17356(%rip), %rdi       # 0x408260 <_ZSt3cin>
  403e94: e8 c7 e3 ff ff               	callq	0x402260 <.plt.sec+0x50>
  403e99: 8b 45 f4                     	movl	-12(%rbp), %eax
  403e9c: 83 f8 03                     	cmpl	$3, %eax
  403e9f: 74 1f                        	je	0x403ec0 <.text+0x1ad0>
  403ea1: 83 f8 03                     	cmpl	$3, %eax
  403ea4: 7f 21                        	jg	0x403ec7 <.text+0x1ad7>
  403ea6: 83 f8 01                     	cmpl	$1, %eax
  403ea9: 74 07                        	je	0x403eb2 <.text+0x1ac2>
  403eab: 83 f8 02                     	cmpl	$2, %eax
  403eae: 74 09                        	je	0x403eb9 <.text+0x1ac9>
  403eb0: eb 15                        	jmp	0x403ec7 <.text+0x1ad7>
  403eb2: e8 14 fa ff ff               	callq	0x4038cb <.text+0x14db>
  403eb7: eb 24                        	jmp	0x403edd <.text+0x1aed>
  403eb9: e8 2d fb ff ff               	callq	0x4039eb <.text+0x15fb>
  403ebe: eb 1d                        	jmp	0x403edd <.text+0x1aed>
  403ec0: e8 02 fd ff ff               	callq	0x403bc7 <.text+0x17d7>
  403ec5: eb 16                        	jmp	0x403edd <.text+0x1aed>
  403ec7: b8 00 00 00 00               	movl	$0, %eax
  403ecc: 48 8b 55 f8                  	movq	-8(%rbp), %rdx
  403ed0: 64 48 33 14 25 28 00 00 00   	xorq	%fs:40, %rdx
  403ed9: 74 09                        	je	0x403ee4 <.text+0x1af4>
  403edb: eb 02                        	jmp	0x403edf <.text+0x1aef>
  403edd: eb 8f                        	jmp	0x403e6e <.text+0x1a7e>
  403edf: e8 1c e4 ff ff               	callq	0x402300 <.plt.sec+0xf0>
  403ee4: c9                           	leave
  403ee5: c3                           	retq
  403ee6: f3 0f 1e fa                  	endbr64
  403eea: 55                           	pushq	%rbp
  403eeb: 48 89 e5                     	movq	%rsp, %rbp
  403eee: 48 83 ec 10                  	subq	$16, %rsp
  403ef2: 89 7d fc                     	movl	%edi, -4(%rbp)
  403ef5: 89 75 f8                     	movl	%esi, -8(%rbp)
  403ef8: 83 7d fc 01                  	cmpl	$1, -4(%rbp)
  403efc: 75 32                        	jne	0x403f30 <.text+0x1b40>
  403efe: 81 7d f8 ff ff 00 00         	cmpl	$65535, -8(%rbp)        # imm = 0xFFFF
  403f05: 75 29                        	jne	0x403f30 <.text+0x1b40>
  403f07: 48 8d 3d ba 6b 00 00         	leaq	27578(%rip), %rdi       # 0x40aac8 <_ZSt3cin+0x2868>
  403f0e: e8 5d e4 ff ff               	callq	0x402370 <.plt.sec+0x160>
  403f13: 48 8d 15 f6 41 00 00         	leaq	16886(%rip), %rdx       # 0x408110
  403f1a: 48 8d 35 a7 6b 00 00         	leaq	27559(%rip), %rsi       # 0x40aac8 <_ZSt3cin+0x2868>
  403f21: 48 8b 05 d0 40 00 00         	movq	16592(%rip), %rax       # 0x407ff8
  403f28: 48 89 c7                     	movq	%rax, %rdi
  403f2b: e8 60 e3 ff ff               	callq	0x402290 <.plt.sec+0x80>
  403f30: 90                           	nop
  403f31: c9                           	leave
  403f32: c3                           	retq
  403f33: f3 0f 1e fa                  	endbr64
  403f37: 55                           	pushq	%rbp
  403f38: 48 89 e5                     	movq	%rsp, %rbp
  403f3b: be ff ff 00 00               	movl	$65535, %esi            # imm = 0xFFFF
  403f40: bf 01 00 00 00               	movl	$1, %edi
  403f45: e8 9c ff ff ff               	callq	0x403ee6 <.text+0x1af6>
  403f4a: 5d                           	popq	%rbp
  403f4b: c3                           	retq
  403f4c: f3 0f 1e fa                  	endbr64
  403f50: 55                           	pushq	%rbp
  403f51: 48 89 e5                     	movq	%rsp, %rbp
  403f54: 48 b8 ff ff ff ff ff ff ff 7f	movabsq	$9223372036854775807, %rax # imm = 0x7FFFFFFFFFFFFFFF
  403f5e: 5d                           	popq	%rbp
  403f5f: c3                           	retq
  403f60: f3 0f 1e fa                  	endbr64
  403f64: 41 57                        	pushq	%r15
  403f66: 4c 8d 3d ab 3d 00 00         	leaq	15787(%rip), %r15       # 0x407d18
  403f6d: 41 56                        	pushq	%r14
  403f6f: 49 89 d6                     	movq	%rdx, %r14
  403f72: 41 55                        	pushq	%r13
  403f74: 49 89 f5                     	movq	%rsi, %r13
  403f77: 41 54                        	pushq	%r12
  403f79: 41 89 fc                     	movl	%edi, %r12d
  403f7c: 55                           	pushq	%rbp
  403f7d: 48 8d 2d ac 3d 00 00         	leaq	15788(%rip), %rbp       # 0x407d30
  403f84: 53                           	pushq	%rbx
  403f85: 4c 29 fd                     	subq	%r15, %rbp
  403f88: 48 83 ec 08                  	subq	$8, %rsp
  403f8c: e8 6f e0 ff ff               	callq	0x402000 <.init>
  403f91: 48 c1 fd 03                  	sarq	$3, %rbp
  403f95: 74 1f                        	je	0x403fb6 <.text+0x1bc6>
  403f97: 31 db                        	xorl	%ebx, %ebx
  403f99: 0f 1f 80 00 00 00 00         	nopl	(%rax)
  403fa0: 4c 89 f2                     	movq	%r14, %rdx
  403fa3: 4c 89 ee                     	movq	%r13, %rsi
  403fa6: 44 89 e7                     	movl	%r12d, %edi
  403fa9: 41 ff 14 df                  	callq	*(%r15,%rbx,8)
  403fad: 48 83 c3 01                  	addq	$1, %rbx
  403fb1: 48 39 dd                     	cmpq	%rbx, %rbp
  403fb4: 75 ea                        	jne	0x403fa0 <.text+0x1bb0>
  403fb6: 48 83 c4 08                  	addq	$8, %rsp
  403fba: 5b                           	popq	%rbx
  403fbb: 5d                           	popq	%rbp
  403fbc: 41 5c                        	popq	%r12
  403fbe: 41 5d                        	popq	%r13
  403fc0: 41 5e                        	popq	%r14
  403fc2: 41 5f                        	popq	%r15
  403fc4: c3                           	retq
  403fc5: 66 66 2e 0f 1f 84 00 00 00 00 00     	nopw	%cs:(%rax,%rax)
  403fd0: f3 0f 1e fa                  	endbr64
  403fd4: c3                           	retq


0000000000403fd8 <.fini>:
  403fd8: f3 0f 1e fa                  	endbr64
  403fdc: 48 83 ec 08                  	subq	$8, %rsp
  403fe0: 48 83 c4 08                  	addq	$8, %rsp
  403fe4: c3                           	retq


0000000000404000 <.rodata>:
  404000: 01 00                        	addl	%eax, (%rax)
  404002: 02 00                        	addb	(%rax), %al
  404004: 00 00                        	addb	%al, (%rax)
  404006: 00 00                        	addb	%al, (%rax)
  404008: 00 64 65 66                  	addb	%ah, 102(%rbp,%riz,2)
  40400c: 61                           	<unknown>
  40400d: 75 6c                        	jne	0x40407b <.rodata+0x7b>
  40400f: 74 00                        	je	0x404011 <.rodata+0x11>
  404011: 00 00                        	addb	%al, (%rax)
  404013: 00 00                        	addb	%al, (%rax)
  404015: 00 00                        	addb	%al, (%rax)
  404017: 00 e2                        	addb	%ah, %dl
  404019: 95                           	xchgl	%ebp, %eax
  40401a: ad                           	lodsl	(%rsi), %eax
  40401b: e2 94                        	loop	0x403fb1 <.text+0x1bc1>
  40401d: 80 e2 94                     	andb	$-108, %dl
  404020: 80 e2 94                     	andb	$-108, %dl
  404023: 80 e2 94                     	andb	$-108, %dl
  404026: 80 e2 94                     	andb	$-108, %dl
  404029: 80 e2 94                     	andb	$-108, %dl
  40402c: 80 e2 94                     	andb	$-108, %dl
  40402f: 80 e2 94                     	andb	$-108, %dl
  404032: 80 e2 94                     	andb	$-108, %dl
  404035: 80 e2 94                     	andb	$-108, %dl
  404038: 80 e2 94                     	andb	$-108, %dl
  40403b: 80 e2 94                     	andb	$-108, %dl
  40403e: 80 e2 94                     	andb	$-108, %dl
  404041: 80 e2 94                     	andb	$-108, %dl
  404044: 80 e2 94                     	andb	$-108, %dl
  404047: 80 e2 94                     	andb	$-108, %dl
  40404a: 80 e2 94                     	andb	$-108, %dl
  40404d: 80 e2 94                     	andb	$-108, %dl
  404050: 80 e2 94                     	andb	$-108, %dl
  404053: 80 e2 94                     	andb	$-108, %dl
  404056: 80 e2 94                     	andb	$-108, %dl
  404059: 80 e2 94                     	andb	$-108, %dl
  40405c: 80 e2 94                     	andb	$-108, %dl
  40405f: 80 e2 94                     	andb	$-108, %dl
  404062: 80 e2 94                     	andb	$-108, %dl
  404065: 80 e2 94                     	andb	$-108, %dl
  404068: 80 e2 94                     	andb	$-108, %dl
  40406b: 80 e2 94                     	andb	$-108, %dl
  40406e: 80 e2 94                     	andb	$-108, %dl
  404071: 80 e2 94                     	andb	$-108, %dl
  404074: 80 e2 94                     	andb	$-108, %dl
  404077: 80 e2 94                     	andb	$-108, %dl
  40407a: 80 e2 94                     	andb	$-108, %dl
  40407d: 80 e2 94                     	andb	$-108, %dl
  404080: 80 e2 94                     	andb	$-108, %dl
  404083: 80 e2 94                     	andb	$-108, %dl
  404086: 80 e2 94                     	andb	$-108, %dl
  404089: 80 e2 94                     	andb	$-108, %dl
  40408c: 80 e2 94                     	andb	$-108, %dl
  40408f: 80 e2 94                     	andb	$-108, %dl
  404092: 80 e2 94                     	andb	$-108, %dl
  404095: 80 e2 94                     	andb	$-108, %dl
  404098: 80 e2 94                     	andb	$-108, %dl
  40409b: 80 e2 94                     	andb	$-108, %dl
  40409e: 80 e2 94                     	andb	$-108, %dl
  4040a1: 80 e2 94                     	andb	$-108, %dl
  4040a4: 80 e2 94                     	andb	$-108, %dl
  4040a7: 80 e2 94                     	andb	$-108, %dl
  4040aa: 80 e2 94                     	andb	$-108, %dl
  4040ad: 80 e2 94                     	andb	$-108, %dl
  4040b0: 80 e2 94                     	andb	$-108, %dl
  4040b3: 80 e2 94                     	andb	$-108, %dl
  4040b6: 80 e2 94                     	andb	$-108, %dl
  4040b9: 80 e2 94                     	andb	$-108, %dl
  4040bc: 80 e2 94                     	andb	$-108, %dl
  4040bf: 80 e2 94                     	andb	$-108, %dl
  4040c2: 80 e2 95                     	andb	$-107, %dl
  4040c5: ae                           	scasb	%es:(%rdi), %al
  4040c6: 00 20                        	addb	%ah, (%rax)
  4040c8: 20 4e 41                     	andb	%cl, 65(%rsi)
  4040cb: 4d 45                        	<unknown>
  4040cd: 3a 20                        	cmpb	(%rax), %ah
  4040cf: 00 20                        	addb	%ah, (%rax)
  4040d1: 20 4a 4f                     	andb	%cl, 79(%rdx)
  4040d4: 42 20 3a                     	andb	%dil, (%rdx)
  4040d7: 20 00                        	andb	%al, (%rax)
  4040d9: 57                           	pushq	%rdi
  4040da: 41 52                        	pushq	%r10
  4040dc: 52                           	pushq	%rdx
  4040dd: 49 4f                        	<unknown>
  4040df: 52                           	pushq	%rdx
  4040e0: 20 e2                        	andb	%ah, %dl
  4040e2: 9a                           	<unknown>
  4040e3: 94                           	xchgl	%esp, %eax
  4040e4: ef                           	outl	%eax, %dx
  4040e5: b8 8f 00 4d 41               	movl	$1095565455, %eax       # imm = 0x414D008F
  4040ea: 47 45                        	<unknown>
  4040ec: 20 f0                        	andb	%dh, %al
  4040ee: 9f                           	lahf
  4040ef: 94                           	xchgl	%esp, %eax
  4040f0: a5                           	movsl	(%rsi), %es:(%rdi)
  4040f1: 00 41 52                     	addb	%al, 82(%rcx)
  4040f4: 43 48                        	rex64
  4040f6: 45 52                        	pushq	%r10
  4040f8: 20 f0                        	andb	%dh, %al
  4040fa: 9f                           	lahf
  4040fb: 8f b9 00                     	<unknown>
  4040fe: 48 45                        	<unknown>
  404100: 52                           	pushq	%rdx
  404101: 4f 20 e2                     	andb	%r12b, %r10b
  404104: ad                           	lodsl	(%rsi), %eax
  404105: 90                           	nop
  404106: 00 42 45                     	addb	%al, 69(%rdx)
  404109: 47 49                        	<unknown>
  40410b: 4e 4e                        	<unknown>
  40410d: 45 52                        	pushq	%r10
  40410f: 20 f0                        	andb	%dh, %al
  404111: 9f                           	lahf
  404112: 98                           	cwtl
  404113: 84 00                        	testb	%al, (%rax)
  404115: 00 00                        	addb	%al, (%rax)
  404117: 00 20                        	addb	%ah, (%rax)
  404119: 20 e2                        	andb	%ah, %dl
  40411b: 94                           	xchgl	%esp, %eax
  40411c: 88 e2                        	movb	%ah, %dl
  40411e: 94                           	xchgl	%esp, %eax
  40411f: 88 e2                        	movb	%ah, %dl
  404121: 94                           	xchgl	%esp, %eax
  404122: 88 e2                        	movb	%ah, %dl
  404124: 94                           	xchgl	%esp, %eax
  404125: 88 e2                        	movb	%ah, %dl
  404127: 94                           	xchgl	%esp, %eax
  404128: 88 e2                        	movb	%ah, %dl
  40412a: 94                           	xchgl	%esp, %eax
  40412b: 88 e2                        	movb	%ah, %dl
  40412d: 94                           	xchgl	%esp, %eax
  40412e: 88 e2                        	movb	%ah, %dl
  404130: 94                           	xchgl	%esp, %eax
  404131: 88 e2                        	movb	%ah, %dl
  404133: 94                           	xchgl	%esp, %eax
  404134: 88 e2                        	movb	%ah, %dl
  404136: 94                           	xchgl	%esp, %eax
  404137: 88 e2                        	movb	%ah, %dl
  404139: 94                           	xchgl	%esp, %eax
  40413a: 88 e2                        	movb	%ah, %dl
  40413c: 94                           	xchgl	%esp, %eax
  40413d: 88 e2                        	movb	%ah, %dl
  40413f: 94                           	xchgl	%esp, %eax
  404140: 88 e2                        	movb	%ah, %dl
  404142: 94                           	xchgl	%esp, %eax
  404143: 88 e2                        	movb	%ah, %dl
  404145: 94                           	xchgl	%esp, %eax
  404146: 88 e2                        	movb	%ah, %dl
  404148: 94                           	xchgl	%esp, %eax
  404149: 88 e2                        	movb	%ah, %dl
  40414b: 94                           	xchgl	%esp, %eax
  40414c: 88 e2                        	movb	%ah, %dl
  40414e: 94                           	xchgl	%esp, %eax
  40414f: 88 e2                        	movb	%ah, %dl
  404151: 94                           	xchgl	%esp, %eax
  404152: 88 e2                        	movb	%ah, %dl
  404154: 94                           	xchgl	%esp, %eax
  404155: 88 e2                        	movb	%ah, %dl
  404157: 94                           	xchgl	%esp, %eax
  404158: 88 e2                        	movb	%ah, %dl
  40415a: 94                           	xchgl	%esp, %eax
  40415b: 88 e2                        	movb	%ah, %dl
  40415d: 94                           	xchgl	%esp, %eax
  40415e: 88 e2                        	movb	%ah, %dl
  404160: 94                           	xchgl	%esp, %eax
  404161: 88 e2                        	movb	%ah, %dl
  404163: 94                           	xchgl	%esp, %eax
  404164: 88 e2                        	movb	%ah, %dl
  404166: 94                           	xchgl	%esp, %eax
  404167: 88 e2                        	movb	%ah, %dl
  404169: 94                           	xchgl	%esp, %eax
  40416a: 88 e2                        	movb	%ah, %dl
  40416c: 94                           	xchgl	%esp, %eax
  40416d: 88 e2                        	movb	%ah, %dl
  40416f: 94                           	xchgl	%esp, %eax
  404170: 88 e2                        	movb	%ah, %dl
  404172: 94                           	xchgl	%esp, %eax
  404173: 88 e2                        	movb	%ah, %dl
  404175: 94                           	xchgl	%esp, %eax
  404176: 88 e2                        	movb	%ah, %dl
  404178: 94                           	xchgl	%esp, %eax
  404179: 88 e2                        	movb	%ah, %dl
  40417b: 94                           	xchgl	%esp, %eax
  40417c: 88 e2                        	movb	%ah, %dl
  40417e: 94                           	xchgl	%esp, %eax
  40417f: 88 e2                        	movb	%ah, %dl
  404181: 94                           	xchgl	%esp, %eax
  404182: 88 e2                        	movb	%ah, %dl
  404184: 94                           	xchgl	%esp, %eax
  404185: 88 e2                        	movb	%ah, %dl
  404187: 94                           	xchgl	%esp, %eax
  404188: 88 e2                        	movb	%ah, %dl
  40418a: 94                           	xchgl	%esp, %eax
  40418b: 88 e2                        	movb	%ah, %dl
  40418d: 94                           	xchgl	%esp, %eax
  40418e: 88 e2                        	movb	%ah, %dl
  404190: 94                           	xchgl	%esp, %eax
  404191: 88 e2                        	movb	%ah, %dl
  404193: 94                           	xchgl	%esp, %eax
  404194: 88 e2                        	movb	%ah, %dl
  404196: 94                           	xchgl	%esp, %eax
  404197: 88 e2                        	movb	%ah, %dl
  404199: 94                           	xchgl	%esp, %eax
  40419a: 88 e2                        	movb	%ah, %dl
  40419c: 94                           	xchgl	%esp, %eax
  40419d: 88 e2                        	movb	%ah, %dl
  40419f: 94                           	xchgl	%esp, %eax
  4041a0: 88 e2                        	movb	%ah, %dl
  4041a2: 94                           	xchgl	%esp, %eax
  4041a3: 88 e2                        	movb	%ah, %dl
  4041a5: 94                           	xchgl	%esp, %eax
  4041a6: 88 e2                        	movb	%ah, %dl
  4041a8: 94                           	xchgl	%esp, %eax
  4041a9: 88 e2                        	movb	%ah, %dl
  4041ab: 94                           	xchgl	%esp, %eax
  4041ac: 88 e2                        	movb	%ah, %dl
  4041ae: 94                           	xchgl	%esp, %eax
  4041af: 88 e2                        	movb	%ah, %dl
  4041b1: 94                           	xchgl	%esp, %eax
  4041b2: 88 e2                        	movb	%ah, %dl
  4041b4: 94                           	xchgl	%esp, %eax
  4041b5: 88 e2                        	movb	%ah, %dl
  4041b7: 94                           	xchgl	%esp, %eax
  4041b8: 88 e2                        	movb	%ah, %dl
  4041ba: 94                           	xchgl	%esp, %eax
  4041bb: 88 20                        	movb	%ah, (%rax)
  4041bd: 20 00                        	andb	%al, (%rax)
  4041bf: 20 20                        	andb	%ah, (%rax)
  4041c1: 48 50                        	pushq	%rax
  4041c3: 20 20                        	andb	%ah, (%rax)
  4041c5: 3a 20                        	cmpb	(%rax), %ah
  4041c7: 00 20                        	addb	%ah, (%rax)
  4041c9: 20 41 54                     	andb	%al, 84(%rcx)
  4041cc: 4b 20 3a                     	andb	%dil, (%r10)
  4041cf: 20 00                        	andb	%al, (%rax)
  4041d1: 20 20                        	andb	%ah, (%rax)
  4041d3: 53                           	pushq	%rbx
  4041d4: 54                           	pushq	%rsp
  4041d5: 52                           	pushq	%rdx
  4041d6: 20 3a                        	andb	%bh, (%rdx)
  4041d8: 20 00                        	andb	%al, (%rax)
  4041da: 20 20                        	andb	%ah, (%rax)
  4041dc: 44 45                        	<unknown>
  4041de: 58                           	popq	%rax
  4041df: 20 3a                        	andb	%bh, (%rdx)
  4041e1: 20 00                        	andb	%al, (%rax)
  4041e3: 20 20                        	andb	%ah, (%rax)
  4041e5: 49 4e                        	<unknown>
  4041e7: 54                           	pushq	%rsp
  4041e8: 20 3a                        	andb	%bh, (%rdx)
  4041ea: 20 00                        	andb	%al, (%rax)
  4041ec: 00 00                        	addb	%al, (%rax)
  4041ee: 00 00                        	addb	%al, (%rax)
  4041f0: e2 95                        	loop	0x404187 <.rodata+0x187>
  4041f2: b0 e2                        	movb	$-30, %al
  4041f4: 94                           	xchgl	%esp, %eax
  4041f5: 80 e2 94                     	andb	$-108, %dl
  4041f8: 80 e2 94                     	andb	$-108, %dl
  4041fb: 80 e2 94                     	andb	$-108, %dl
  4041fe: 80 e2 94                     	andb	$-108, %dl
  404201: 80 e2 94                     	andb	$-108, %dl
  404204: 80 e2 94                     	andb	$-108, %dl
  404207: 80 e2 94                     	andb	$-108, %dl
  40420a: 80 e2 94                     	andb	$-108, %dl
  40420d: 80 e2 94                     	andb	$-108, %dl
  404210: 80 e2 94                     	andb	$-108, %dl
  404213: 80 e2 94                     	andb	$-108, %dl
  404216: 80 e2 94                     	andb	$-108, %dl
  404219: 80 e2 94                     	andb	$-108, %dl
  40421c: 80 e2 94                     	andb	$-108, %dl
  40421f: 80 e2 94                     	andb	$-108, %dl
  404222: 80 e2 94                     	andb	$-108, %dl
  404225: 80 e2 94                     	andb	$-108, %dl
  404228: 80 e2 94                     	andb	$-108, %dl
  40422b: 80 e2 94                     	andb	$-108, %dl
  40422e: 80 e2 94                     	andb	$-108, %dl
  404231: 80 e2 94                     	andb	$-108, %dl
  404234: 80 e2 94                     	andb	$-108, %dl
  404237: 80 e2 94                     	andb	$-108, %dl
  40423a: 80 e2 94                     	andb	$-108, %dl
  40423d: 80 e2 94                     	andb	$-108, %dl
  404240: 80 e2 94                     	andb	$-108, %dl
  404243: 80 e2 94                     	andb	$-108, %dl
  404246: 80 e2 94                     	andb	$-108, %dl
  404249: 80 e2 94                     	andb	$-108, %dl
  40424c: 80 e2 94                     	andb	$-108, %dl
  40424f: 80 e2 94                     	andb	$-108, %dl
  404252: 80 e2 94                     	andb	$-108, %dl
  404255: 80 e2 94                     	andb	$-108, %dl
  404258: 80 e2 94                     	andb	$-108, %dl
  40425b: 80 e2 94                     	andb	$-108, %dl
  40425e: 80 e2 94                     	andb	$-108, %dl
  404261: 80 e2 94                     	andb	$-108, %dl
  404264: 80 e2 94                     	andb	$-108, %dl
  404267: 80 e2 94                     	andb	$-108, %dl
  40426a: 80 e2 94                     	andb	$-108, %dl
  40426d: 80 e2 94                     	andb	$-108, %dl
  404270: 80 e2 94                     	andb	$-108, %dl
  404273: 80 e2 94                     	andb	$-108, %dl
  404276: 80 e2 94                     	andb	$-108, %dl
  404279: 80 e2 94                     	andb	$-108, %dl
  40427c: 80 e2 94                     	andb	$-108, %dl
  40427f: 80 e2 94                     	andb	$-108, %dl
  404282: 80 e2 94                     	andb	$-108, %dl
  404285: 80 e2 94                     	andb	$-108, %dl
  404288: 80 e2 94                     	andb	$-108, %dl
  40428b: 80 e2 94                     	andb	$-108, %dl
  40428e: 80 e2 94                     	andb	$-108, %dl
  404291: 80 e2 94                     	andb	$-108, %dl
  404294: 80 e2 94                     	andb	$-108, %dl
  404297: 80 e2 94                     	andb	$-108, %dl
  40429a: 80 e2 95                     	andb	$-107, %dl
  40429d: af                           	scasl	%es:(%rdi), %eax
  40429e: 00 25 73 00 00 00            	addb	%ah, 115(%rip)          # 0x404317 <.rodata+0x317>
  4042a4: 00 00                        	addb	%al, (%rax)
  4042a6: 00 00                        	addb	%al, (%rax)
  4042a8: 36 50                        	pushq	%rax
  4042aa: 6c                           	insb	%dx, %es:(%rdi)
  4042ab: 61                           	<unknown>
  4042ac: 79 65                        	jns	0x404313 <.rodata+0x313>
  4042ae: 72 00                        	jb	0x4042b0 <.rodata+0x2b0>
		...
  4042b8: 31 30                        	xorl	%esi, (%rax)
  4042ba: 41 64                        	fs
  4042bc: 76 65                        	jbe	0x404323 <.rodata+0x323>
  4042be: 6e                           	outsb	(%rsi), %dx
  4042bf: 74 75                        	je	0x404336 <.rodata+0x336>
  4042c1: 72 65                        	jb	0x404328 <.rodata+0x328>
  4042c3: 72 00                        	jb	0x4042c5 <.rodata+0x2c5>
  4042c5: 00 34 48                     	addb	%dh, (%rax,%rcx,2)
  4042c8: 65 72 6f                     	jb	0x40433a <.rodata+0x33a>
  4042cb: 00 00                        	addb	%al, (%rax)
  4042cd: 00 00                        	addb	%al, (%rax)
  4042cf: 00 00                        	addb	%al, (%rax)
  4042d1: 1b 5b 32                     	sbbl	50(%rbx), %ebx
  4042d4: 4a 1b 5b 48                  	sbbq	72(%rbx), %rbx
		...
  4042e0: 20 20                        	andb	%ah, (%rax)
  4042e2: 20 20                        	andb	%ah, (%rax)
  4042e4: 20 20                        	andb	%ah, (%rax)
  4042e6: 20 20                        	andb	%ah, (%rax)
  4042e8: 20 20                        	andb	%ah, (%rax)
  4042ea: 20 20                        	andb	%ah, (%rax)
  4042ec: 20 20                        	andb	%ah, (%rax)
  4042ee: 5b                           	popq	%rbx
  4042ef: 20 50 72                     	andb	%dl, 114(%rax)
  4042f2: 65 73 73                     	jae	0x404368 <.rodata+0x368>
  4042f5: 20 45 4e                     	andb	%al, 78(%rbp)
  4042f8: 54                           	pushq	%rsp
  4042f9: 45 52                        	pushq	%r10
  4042fb: 20 74 6f 20                  	andb	%dh, 32(%rdi,%rbp,2)
  4042ff: 63 6f 6e                     	movslq	110(%rdi), %ebp
  404302: 74 69                        	je	0x40436d <.rodata+0x36d>
  404304: 6e                           	outsb	(%rsi), %dx
  404305: 75 65                        	jne	0x40436c <.rodata+0x36c>
  404307: 20 5d 00                     	andb	%bl, (%rbp)
  40430a: 00 00                        	addb	%al, (%rax)
  40430c: 00 00                        	addb	%al, (%rax)
  40430e: 00 00                        	addb	%al, (%rax)
  404310: e2 95                        	loop	0x4042a7 <.rodata+0x2a7>
  404312: ad                           	lodsl	(%rsi), %eax
  404313: e2 94                        	loop	0x4042a9 <.rodata+0x2a9>
  404315: 81 e2 94 81 e2 94            	andl	$2497872276, %edx       # imm = 0x94E28194
  40431b: 81 e2 94 81 e2 94            	andl	$2497872276, %edx       # imm = 0x94E28194
  404321: b3 e2                        	movb	$-30, %bl
  404323: 95                           	xchgl	%ebp, %eax
  404324: ae                           	scasb	%es:(%rdi), %al
  404325: e2 95                        	loop	0x4042bc <.rodata+0x2bc>
  404327: b1 e2                        	movb	$-30, %cl
  404329: 95                           	xchgl	%ebp, %eax
  40432a: b1 e2                        	movb	$-30, %cl
  40432c: 95                           	xchgl	%ebp, %eax
  40432d: b1 e2                        	movb	$-30, %cl
  40432f: 95                           	xchgl	%ebp, %eax
  404330: b1 e2                        	movb	$-30, %cl
  404332: 95                           	xchgl	%ebp, %eax
  404333: b1 e2                        	movb	$-30, %cl
  404335: 95                           	xchgl	%ebp, %eax
  404336: ad                           	lodsl	(%rsi), %eax
  404337: e2 94                        	loop	0x4042cd <.rodata+0x2cd>
  404339: 81 e2 94 81 e2 94            	andl	$2497872276, %edx       # imm = 0x94E28194
  40433f: 81 e2 95 ae e2 95            	andl	$2514661013, %edx       # imm = 0x95E2AE95
  404345: b1 e2                        	movb	$-30, %cl
  404347: 95                           	xchgl	%ebp, %eax
  404348: ad                           	lodsl	(%rsi), %eax
  404349: e2 95                        	loop	0x4042e0 <.rodata+0x2e0>
  40434b: ae                           	scasb	%es:(%rdi), %al
  40434c: e2 95                        	loop	0x4042e3 <.rodata+0x2e3>
  40434e: b1 e2                        	movb	$-30, %cl
  404350: 95                           	xchgl	%ebp, %eax
  404351: b1 e2                        	movb	$-30, %cl
  404353: 95                           	xchgl	%ebp, %eax
  404354: b1 e2                        	movb	$-30, %cl
  404356: 95                           	xchgl	%ebp, %eax
  404357: b1 e2                        	movb	$-30, %cl
  404359: 95                           	xchgl	%ebp, %eax
  40435a: b1 e2                        	movb	$-30, %cl
  40435c: 95                           	xchgl	%ebp, %eax
  40435d: b1 e2                        	movb	$-30, %cl
  40435f: 95                           	xchgl	%ebp, %eax
  404360: b1 e2                        	movb	$-30, %cl
  404362: 95                           	xchgl	%ebp, %eax
  404363: b1 e2                        	movb	$-30, %cl
  404365: 95                           	xchgl	%ebp, %eax
  404366: ad                           	lodsl	(%rsi), %eax
  404367: e2 95                        	loop	0x4042fe <.rodata+0x2fe>
  404369: ae                           	scasb	%es:(%rdi), %al
  40436a: e2 95                        	loop	0x404301 <.rodata+0x301>
  40436c: b1 e2                        	movb	$-30, %cl
  40436e: 95                           	xchgl	%ebp, %eax
  40436f: b1 e2                        	movb	$-30, %cl
  404371: 95                           	xchgl	%ebp, %eax
  404372: b1 e2                        	movb	$-30, %cl
  404374: 95                           	xchgl	%ebp, %eax
  404375: b1 e2                        	movb	$-30, %cl
  404377: 95                           	xchgl	%ebp, %eax
  404378: b1 e2                        	movb	$-30, %cl
  40437a: 95                           	xchgl	%ebp, %eax
  40437b: b1 e2                        	movb	$-30, %cl
  40437d: 95                           	xchgl	%ebp, %eax
  40437e: b1 e2                        	movb	$-30, %cl
  404380: 95                           	xchgl	%ebp, %eax
  404381: b1 e2                        	movb	$-30, %cl
  404383: 95                           	xchgl	%ebp, %eax
  404384: b1 e2                        	movb	$-30, %cl
  404386: 95                           	xchgl	%ebp, %eax
  404387: b1 e2                        	movb	$-30, %cl
  404389: 95                           	xchgl	%ebp, %eax
  40438a: b1 e2                        	movb	$-30, %cl
  40438c: 95                           	xchgl	%ebp, %eax
  40438d: b1 e2                        	movb	$-30, %cl
  40438f: 95                           	xchgl	%ebp, %eax
  404390: b1 e2                        	movb	$-30, %cl
  404392: 95                           	xchgl	%ebp, %eax
  404393: b1 e2                        	movb	$-30, %cl
  404395: 95                           	xchgl	%ebp, %eax
  404396: b1 e2                        	movb	$-30, %cl
  404398: 95                           	xchgl	%ebp, %eax
  404399: ad                           	lodsl	(%rsi), %eax
  40439a: e2 94                        	loop	0x404330 <.rodata+0x330>
  40439c: 81 e2 94 81 e2 94            	andl	$2497872276, %edx       # imm = 0x94E28194
  4043a2: 81 e2 95 ae e2 95            	andl	$2514661013, %edx       # imm = 0x95E2AE95
  4043a8: b1 e2                        	movb	$-30, %cl
  4043aa: 95                           	xchgl	%ebp, %eax
  4043ab: b1 e2                        	movb	$-30, %cl
  4043ad: 95                           	xchgl	%ebp, %eax
  4043ae: b1 e2                        	movb	$-30, %cl
  4043b0: 95                           	xchgl	%ebp, %eax
  4043b1: ad                           	lodsl	(%rsi), %eax
  4043b2: e2 95                        	loop	0x404349 <.rodata+0x349>
  4043b4: ae                           	scasb	%es:(%rdi), %al
  4043b5: e2 95                        	loop	0x40434c <.rodata+0x34c>
  4043b7: b1 e2                        	movb	$-30, %cl
  4043b9: 95                           	xchgl	%ebp, %eax
  4043ba: b1 e2                        	movb	$-30, %cl
  4043bc: 95                           	xchgl	%ebp, %eax
  4043bd: ad                           	lodsl	(%rsi), %eax
  4043be: e2 95                        	loop	0x404355 <.rodata+0x355>
  4043c0: ae                           	scasb	%es:(%rdi), %al
  4043c1: 0a e2                        	orb	%dl, %ah
  4043c3: 94                           	xchgl	%esp, %eax
  4043c4: 83 e2 95                     	andl	$-107, %edx
  4043c7: ad                           	lodsl	(%rsi), %eax
  4043c8: e2 95                        	loop	0x40435f <.rodata+0x35f>
  4043ca: ae                           	scasb	%es:(%rdi), %al
  4043cb: e2 95                        	loop	0x404362 <.rodata+0x362>
  4043cd: ad                           	lodsl	(%rsi), %eax
  4043ce: e2 95                        	loop	0x404365 <.rodata+0x365>
  4043d0: ae                           	scasb	%es:(%rdi), %al
  4043d1: e2 94                        	loop	0x404367 <.rodata+0x367>
  4043d3: 83 e2 94                     	andl	$-108, %edx
  4043d6: 83 e2 95                     	andl	$-107, %edx
  4043d9: b1 e2                        	movb	$-30, %cl
  4043db: 95                           	xchgl	%ebp, %eax
  4043dc: b1 e2                        	movb	$-30, %cl
  4043de: 95                           	xchgl	%ebp, %eax
  4043df: b1 e2                        	movb	$-30, %cl
  4043e1: 95                           	xchgl	%ebp, %eax
  4043e2: b1 e2                        	movb	$-30, %cl
  4043e4: 95                           	xchgl	%ebp, %eax
  4043e5: b1 e2                        	movb	$-30, %cl
  4043e7: 94                           	xchgl	%esp, %eax
  4043e8: 83 e2 95                     	andl	$-107, %edx
  4043eb: ad                           	lodsl	(%rsi), %eax
  4043ec: e2 94                        	loop	0x404382 <.rodata+0x382>
  4043ee: 81 e2 95 ae e2 94            	andl	$2497883797, %edx       # imm = 0x94E2AE95
  4043f4: 83 e2 95                     	andl	$-107, %edx
  4043f7: b1 e2                        	movb	$-30, %cl
  4043f9: 94                           	xchgl	%esp, %eax
  4043fa: 83 e2 94                     	andl	$-108, %edx
  4043fd: 83 e2 95                     	andl	$-107, %edx
  404400: b1 e2                        	movb	$-30, %cl
  404402: 95                           	xchgl	%ebp, %eax
  404403: b1 e2                        	movb	$-30, %cl
  404405: 95                           	xchgl	%ebp, %eax
  404406: b1 e2                        	movb	$-30, %cl
  404408: 95                           	xchgl	%ebp, %eax
  404409: b1 e2                        	movb	$-30, %cl
  40440b: 95                           	xchgl	%ebp, %eax
  40440c: b1 e2                        	movb	$-30, %cl
  40440e: 95                           	xchgl	%ebp, %eax
  40440f: b1 e2                        	movb	$-30, %cl
  404411: 95                           	xchgl	%ebp, %eax
  404412: b1 e2                        	movb	$-30, %cl
  404414: 95                           	xchgl	%ebp, %eax
  404415: ad                           	lodsl	(%rsi), %eax
  404416: e2 95                        	loop	0x4043ad <.rodata+0x3ad>
  404418: af                           	scasl	%es:(%rdi), %eax
  404419: e2 95                        	loop	0x4043b0 <.rodata+0x3b0>
  40441b: b0 e2                        	movb	$-30, %al
  40441d: 95                           	xchgl	%ebp, %eax
  40441e: ae                           	scasb	%es:(%rdi), %al
  40441f: e2 95                        	loop	0x4043b6 <.rodata+0x3b6>
  404421: b1 e2                        	movb	$-30, %cl
  404423: 95                           	xchgl	%ebp, %eax
  404424: b1 e2                        	movb	$-30, %cl
  404426: 95                           	xchgl	%ebp, %eax
  404427: b1 e2                        	movb	$-30, %cl
  404429: 95                           	xchgl	%ebp, %eax
  40442a: b1 e2                        	movb	$-30, %cl
  40442c: 95                           	xchgl	%ebp, %eax
  40442d: b1 e2                        	movb	$-30, %cl
  40442f: 95                           	xchgl	%ebp, %eax
  404430: b1 e2                        	movb	$-30, %cl
  404432: 95                           	xchgl	%ebp, %eax
  404433: b1 e2                        	movb	$-30, %cl
  404435: 95                           	xchgl	%ebp, %eax
  404436: b1 e2                        	movb	$-30, %cl
  404438: 95                           	xchgl	%ebp, %eax
  404439: b1 e2                        	movb	$-30, %cl
  40443b: 95                           	xchgl	%ebp, %eax
  40443c: ad                           	lodsl	(%rsi), %eax
  40443d: e2 95                        	loop	0x4043d4 <.rodata+0x3d4>
  40443f: ae                           	scasb	%es:(%rdi), %al
  404440: e2 95                        	loop	0x4043d7 <.rodata+0x3d7>
  404442: b1 e2                        	movb	$-30, %cl
  404444: 95                           	xchgl	%ebp, %eax
  404445: b1 e2                        	movb	$-30, %cl
  404447: 95                           	xchgl	%ebp, %eax
  404448: b1 e2                        	movb	$-30, %cl
  40444a: 94                           	xchgl	%esp, %eax
  40444b: 83 e2 95                     	andl	$-107, %edx
  40444e: ad                           	lodsl	(%rsi), %eax
  40444f: e2 94                        	loop	0x4043e5 <.rodata+0x3e5>
  404451: 81 e2 95 ae e2 94            	andl	$2497883797, %edx       # imm = 0x94E2AE95
  404457: 83 e2 95                     	andl	$-107, %edx
  40445a: b1 e2                        	movb	$-30, %cl
  40445c: 95                           	xchgl	%ebp, %eax
  40445d: b1 e2                        	movb	$-30, %cl
  40445f: 95                           	xchgl	%ebp, %eax
  404460: b1 e2                        	movb	$-30, %cl
  404462: 94                           	xchgl	%esp, %eax
  404463: 83 e2 94                     	andl	$-108, %edx
  404466: 83 e2 95                     	andl	$-107, %edx
  404469: b1 e2                        	movb	$-30, %cl
  40446b: 95                           	xchgl	%ebp, %eax
  40446c: b1 e2                        	movb	$-30, %cl
  40446e: 94                           	xchgl	%esp, %eax
  40446f: 83 e2 94                     	andl	$-108, %edx
  404472: 83 0a e2                     	orl	$-30, (%rdx)
  404475: 95                           	xchgl	%ebp, %eax
  404476: b0 e2                        	movb	$-30, %al
  404478: 95                           	xchgl	%ebp, %eax
  404479: af                           	scasl	%es:(%rdi), %eax
  40447a: e2 94                        	loop	0x404410 <.rodata+0x410>
  40447c: 83 e2 94                     	andl	$-108, %edx
  40447f: 83 e2 95                     	andl	$-107, %edx
  404482: b0 e2                        	movb	$-30, %al
  404484: 94                           	xchgl	%esp, %eax
  404485: ab                           	stosl	%eax, %es:(%rdi)
  404486: e2 95                        	loop	0x40441d <.rodata+0x41d>
  404488: b0 e2                        	movb	$-30, %al
  40448a: 94                           	xchgl	%esp, %eax
  40448b: 81 e2 94 b3 e2 94            	andl	$2497885076, %edx       # imm = 0x94E2B394
  404491: 81 e2 94 81 e2 95            	andl	$2514649492, %edx       # imm = 0x95E28194
  404497: ae                           	scasb	%es:(%rdi), %al
  404498: e2 94                        	loop	0x40442e <.rodata+0x42e>
  40449a: 83 e2 94                     	andl	$-108, %edx
  40449d: 83 e2 95                     	andl	$-107, %edx
  4044a0: b1 e2                        	movb	$-30, %cl
  4044a2: 94                           	xchgl	%esp, %eax
  4044a3: 83 e2 94                     	andl	$-108, %edx
  4044a6: a3 e2 94 81 e2 95 af e2 94   	movabsl	%eax, -7718413753074477854
  4044af: a3 e2 95 ae e2 95 ad e2 94   	movabsl	%eax, -7718415952094784030
  4044b8: b3 e2                        	movb	$-30, %bl
  4044ba: 94                           	xchgl	%esp, %eax
  4044bb: 81 e2 94 81 e2 94            	andl	$2497872276, %edx       # imm = 0x94E28194
  4044c1: b3 e2                        	movb	$-30, %bl
  4044c3: 94                           	xchgl	%esp, %eax
  4044c4: 81 e2 95 8b e2 95            	andl	$2514652053, %edx       # imm = 0x95E28B95
  4044ca: ae                           	scasb	%es:(%rdi), %al
  4044cb: e2 95                        	loop	0x404462 <.rodata+0x462>
  4044cd: ad                           	lodsl	(%rsi), %eax
  4044ce: e2 95                        	loop	0x404465 <.rodata+0x465>
  4044d0: 8b e2                        	movl	%edx, %esp
  4044d2: 95                           	xchgl	%ebp, %eax
  4044d3: ae                           	scasb	%es:(%rdi), %al
  4044d4: e2 95                        	loop	0x40446b <.rodata+0x46b>
  4044d6: ad                           	lodsl	(%rsi), %eax
  4044d7: e2 94                        	loop	0x40446d <.rodata+0x46d>
  4044d9: b3 e2                        	movb	$-30, %bl
  4044db: 94                           	xchgl	%esp, %eax
  4044dc: 81 e2 94 b3 e2 94            	andl	$2497885076, %edx       # imm = 0x94E2B394
  4044e2: 81 e2 94 81 e2 94            	andl	$2497872276, %edx       # imm = 0x94E28194
  4044e8: b3 e2                        	movb	$-30, %bl
  4044ea: 94                           	xchgl	%esp, %eax
  4044eb: 81 e2 94 ab e2 94            	andl	$2497883028, %edx       # imm = 0x94E2AB94
  4044f1: a3 e2 94 81 e2 94 81 e2 95   	movabsl	%eax, -7646406740866394910
  4044fa: ae                           	scasb	%es:(%rdi), %al
  4044fb: e2 94                        	loop	0x404491 <.rodata+0x491>
  4044fd: 83 e2 94                     	andl	$-108, %edx
  404500: 83 e2 95                     	andl	$-107, %edx
  404503: b1 e2                        	movb	$-30, %cl
  404505: 95                           	xchgl	%ebp, %eax
  404506: b0 e2                        	movb	$-30, %al
  404508: 95                           	xchgl	%ebp, %eax
  404509: 8b e2                        	movl	%edx, %esp
  40450b: 95                           	xchgl	%ebp, %eax
  40450c: ae                           	scasb	%es:(%rdi), %al
  40450d: e2 95                        	loop	0x4044a4 <.rodata+0x4a4>
  40450f: ad                           	lodsl	(%rsi), %eax
  404510: e2 94                        	loop	0x4044a6 <.rodata+0x4a6>
  404512: b3 e2                        	movb	$-30, %bl
  404514: 94                           	xchgl	%esp, %eax
  404515: ab                           	stosl	%eax, %es:(%rdi)
  404516: e2 94                        	loop	0x4044ac <.rodata+0x4ac>
  404518: 83 e2 95                     	andl	$-107, %edx
  40451b: ad                           	lodsl	(%rsi), %eax
  40451c: e2 94                        	loop	0x4044b2 <.rodata+0x4b2>
  40451e: 81 e2 95 af e2 94            	andl	$2497884053, %edx       # imm = 0x94E2AF95
  404524: 83 0a e2                     	orl	$-30, (%rdx)
  404527: 95                           	xchgl	%ebp, %eax
  404528: b1 e2                        	movb	$-30, %cl
  40452a: 95                           	xchgl	%ebp, %eax
  40452b: b1 e2                        	movb	$-30, %cl
  40452d: 94                           	xchgl	%esp, %eax
  40452e: 83 e2 94                     	andl	$-108, %edx
  404531: 83 e2 95                     	andl	$-107, %edx
  404534: b1 e2                        	movb	$-30, %cl
  404536: 94                           	xchgl	%esp, %eax
  404537: 83 e2 95                     	andl	$-107, %edx
  40453a: ad                           	lodsl	(%rsi), %eax
  40453b: e2 95                        	loop	0x4044d2 <.rodata+0x4d2>
  40453d: ae                           	scasb	%es:(%rdi), %al
  40453e: e2 94                        	loop	0x4044d4 <.rodata+0x4d4>
  404540: 83 e2 94                     	andl	$-108, %edx
  404543: 83 e2 94                     	andl	$-108, %edx
  404546: 81 e2 94 ab e2 94            	andl	$2497883028, %edx       # imm = 0x94E2AB94
  40454c: 83 e2 95                     	andl	$-107, %edx
  40454f: b0 e2                        	movb	$-30, %al
  404551: 94                           	xchgl	%esp, %eax
  404552: 81 e2 95 af e2 94            	andl	$2497884053, %edx       # imm = 0x94E2AF95
  404558: 83 e2 95                     	andl	$-107, %edx
  40455b: ad                           	lodsl	(%rsi), %eax
  40455c: e2 95                        	loop	0x4044f3 <.rodata+0x4f3>
  40455e: ae                           	scasb	%es:(%rdi), %al
  40455f: e2 94                        	loop	0x4044f5 <.rodata+0x4f5>
  404561: 83 e2 95                     	andl	$-107, %edx
  404564: b0 e2                        	movb	$-30, %al
  404566: 95                           	xchgl	%ebp, %eax
  404567: af                           	scasl	%es:(%rdi), %eax
  404568: e2 94                        	loop	0x4044fe <.rodata+0x4fe>
  40456a: 83 e2 94                     	andl	$-108, %edx
  40456d: 83 e2 94                     	andl	$-108, %edx
  404570: 81 e2 94 ab e2 95            	andl	$2514660244, %edx       # imm = 0x95E2AB94
  404576: ad                           	lodsl	(%rsi), %eax
  404577: e2 95                        	loop	0x40450e <.rodata+0x50e>
  404579: ae                           	scasb	%es:(%rdi), %al
  40457a: e2 94                        	loop	0x404510 <.rodata+0x510>
  40457c: ab                           	stosl	%eax, %es:(%rdi)
  40457d: e2 94                        	loop	0x404513 <.rodata+0x513>
  40457f: 83 e2 94                     	andl	$-108, %edx
  404582: 83 e2 94                     	andl	$-108, %edx
  404585: 83 e2 94                     	andl	$-108, %edx
  404588: 83 e2 94                     	andl	$-108, %edx
  40458b: 83 e2 95                     	andl	$-107, %edx
  40458e: ad                           	lodsl	(%rsi), %eax
  40458f: e2 94                        	loop	0x404525 <.rodata+0x525>
  404591: ab                           	stosl		%eax, %es:(%rdi)
  404592: e2 94                        	loop	0x404528 <.rodata+0x528>
  404594: 83 e2 94                     	andl	$-108, %edx
  404597: 81 e2 94 ab e2 95            	andl	$2514660244, %edx       # imm = 0x95E2AB94
  40459d: ad                           	lodsl	(%rsi), %eax
  40459e: e2 94                        	loop	0x404534 <.rodata+0x534>
  4045a0: bb e2 94 ab e2               	movl	$3802895586, %ebx       # imm = 0xE2AB94E2
  4045a5: 94                           	xchgl	%esp, %eax
  4045a6: 81 e2 94 81 e2 94            	andl	$2497872276, %edx       # imm = 0x94E28194
  4045ac: ab                           	stosl	%eax, %es:(%rdi)
  4045ad: e2 94                        	loop	0x404543 <.rodata+0x543>
  4045af: 83 e2 94                     	andl	$-108, %edx
  4045b2: 83 e2 95                     	andl	$-107, %edx
  4045b5: ad                           	lodsl	(%rsi), %eax
  4045b6: e2 94                        	loop	0x40454c <.rodata+0x54c>
  4045b8: 81 e2 94 ab e2 94            	andl	$2497883028, %edx       # imm = 0x94E2AB94
  4045be: 83 e2 94                     	andl	$-108, %edx
  4045c1: 83 e2 94                     	andl	$-108, %edx
  4045c4: a3 e2 94 ab e2 94 83 e2 94   	movabsl	%eax, -7718462135878314782
  4045cd: 83 e2 95                     	andl	$-107, %edx
  4045d0: ad                           	lodsl	(%rsi), %eax
  4045d1: e2 95                        	loop	0x404568 <.rodata+0x568>
  4045d3: ae                           	scasb	%es:(%rdi), %al
  4045d4: e2 94                        	loop	0x40456a <.rodata+0x56a>
  4045d6: 83 0a e2                     	orl	$-30, (%rdx)
  4045d9: 95                           	xchgl	%ebp, %eax
  4045da: b1 e2                        	movb	$-30, %cl
  4045dc: 95                           	xchgl	%ebp, %eax
  4045dd: b1 e2                        	movb	$-30, %cl
  4045df: 94                           	xchgl	%esp, %eax
  4045e0: 83 e2 94                     	andl	$-108, %edx
  4045e3: 83 e2 95                     	andl	$-107, %edx
  4045e6: b1 e2                        	movb	$-30, %cl
  4045e8: 94                           	xchgl	%esp, %eax
  4045e9: 83 e2 94                     	andl	$-108, %edx
  4045ec: 83 e2 94                     	andl	$-108, %edx
  4045ef: 83 e2 94                     	andl	$-108, %edx
  4045f2: 83 e2 94                     	andl	$-108, %edx
  4045f5: 83 e2 94                     	andl	$-108, %edx
  4045f8: 81 e2 94 ab e2 94            	andl	$2497883028, %edx       # imm = 0x94E2AB94
  4045fe: 83 e2 95                     	andl	$-107, %edx
  404601: ad                           	lodsl	(%rsi), %eax
  404602: e2 94                        	loop	0x404598 <.rodata+0x598>
  404604: 81 e2 95 ae e2 94            	andl	$2497883797, %edx       # imm = 0x94E2AE95
  40460a: 83 e2 95                     	andl	$-107, %edx
  40460d: b0 e2                        	movb	$-30, %al
  40460f: 95                           	xchgl	%ebp, %eax
  404610: af                           	scasl	%es:(%rdi), %eax
  404611: e2 94                        	loop	0x4045a7 <.rodata+0x5a7>
  404613: a3 e2 95 ae e2 95 ad e2 94   	movabsl	%eax, -7718415952094784030
  40461c: ab                           	stosl	%eax, %es:(%rdi)
  40461d: e2 94                        	loop	0x4045b3 <.rodata+0x5b3>
  40461f: 83 e2 94                     	andl	$-108, %edx
  404622: 81 e2 94 ab e2 94            	andl	$2497883028, %edx       # imm = 0x94E2AB94
  404628: 83 e2 94                     	andl	$-108, %edx
  40462b: 83 e2 94                     	andl	$-108, %edx
  40462e: 83 e2 95                     	andl	$-107, %edx
  404631: b0 e2                        	movb	$-30, %al
  404633: 94                           	xchgl	%esp, %eax
  404634: ab                           	stosl	%eax, %es:(%rdi)
  404635: e2 95                        	loop	0x4045cc <.rodata+0x5cc>
  404637: b0 e2                        	movb	$-30, %al
  404639: 95                           	xchgl	%ebp, %eax
  40463a: af                           	scasl	%es:(%rdi), %eax
  40463b: e2 94                        	loop	0x4045d1 <.rodata+0x5d1>
  40463d: 83 e2 94                     	andl	$-108, %edx
  404640: 83 e2 94                     	andl	$-108, %edx
  404643: 83 e2 94                     	andl	$-108, %edx
  404646: 83 e2 94                     	andl	$-108, %edx
  404649: 81 e2 94 ab e2 94            	andl	$2497883028, %edx       # imm = 0x94E2AB94
  40464f: 83 e2 95                     	andl	$-107, %edx
  404652: b1 e2                        	movb	$-30, %cl
  404654: 94                           	xchgl	%esp, %eax
  404655: a3 e2 94 81 e2 94 81 e2 94   	movabsl	%eax, -7718464334904322846
  40465e: 83 e2 94                     	andl	$-108, %edx
  404661: 83 e2 95                     	andl	$-107, %edx
  404664: b0 e2                        	movb	$-30, %al
  404666: 94                           	xchgl	%esp, %eax
  404667: bb e2 94 81 e2               	movl	$3800143074, %ebx       # imm = 0xE28194E2
  40466c: 94                           	xchgl	%esp, %eax
  40466d: 83 e2 95                     	andl	$-107, %edx
  404670: b0 e2                        	movb	$-30, %al
  404672: 95                           	xchgl	%ebp, %eax
  404673: af                           	scasl	%es:(%rdi), %eax
  404674: e2 94                        	loop	0x40460a <.rodata+0x60a>
  404676: 83 e2 94                     	andl	$-108, %edx
  404679: 83 e2 95                     	andl	$-107, %edx
  40467c: b0 e2                        	movb	$-30, %al
  40467e: 94                           	xchgl	%esp, %eax
  40467f: ab                           	stosl	%eax, %es:(%rdi)
  404680: e2 95                        	loop	0x404617 <.rodata+0x617>
  404682: b0 e2                        	movb	$-30, %al
  404684: 95                           	xchgl	%ebp, %eax
  404685: af                           	scasl	%es:(%rdi), %eax
  404686: e2 94                        	loop	0x40461c <.rodata+0x61c>
  404688: 83 0a e2                     	orl	$-30, (%rdx)
  40468b: 95                           	xchgl	%ebp, %eax
  40468c: b1 e2                        	movb	$-30, %cl
  40468e: 95                           	xchgl	%ebp, %eax
  40468f: b1 e2                        	movb	$-30, %cl
  404691: 95                           	xchgl	%ebp, %eax
  404692: b0 e2                        	movb	$-30, %al
  404694: 95                           	xchgl	%ebp, %eax
  404695: af                           	scasl	%es:(%rdi), %eax
  404696: e2 95                        	loop	0x40462d <.rodata+0x62d>
  404698: b1 e2                        	movb	$-30, %cl
  40469a: 95                           	xchgl	%ebp, %eax
  40469b: b0 e2                        	movb	$-30, %al
  40469d: 95                           	xchgl	%ebp, %eax
  40469e: af                           	scasl	%es:(%rdi), %eax
  40469f: e2 95                        	loop	0x404636 <.rodata+0x636>
  4046a1: b0 e2                        	movb	$-30, %al
  4046a3: 94                           	xchgl	%esp, %eax
  4046a4: bb e2 94 81 e2               	movl	$3800143074, %ebx       # imm = 0xE28194E2
  4046a9: 94                           	xchgl	%esp, %eax
  4046aa: 81 e2 95 af e2 95            	andl	$2514661269, %edx       # imm = 0x95E2AF95
  4046b0: b0 e2                        	movb	$-30, %al
  4046b2: 95                           	xchgl	%ebp, %eax
  4046b3: af                           	scasl	%es:(%rdi), %eax
  4046b4: e2 95                        	loop	0x40464b <.rodata+0x64b>
  4046b6: b1 e2                        	movb	$-30, %cl
  4046b8: 95                           	xchgl	%ebp, %eax
  4046b9: b0 e2                        	movb	$-30, %al
  4046bb: 94                           	xchgl	%esp, %eax
  4046bc: bb e2 94 81 e2               	movl	$3800143074, %ebx       # imm = 0xE28194E2
  4046c1: 94                           	xchgl	%esp, %eax
  4046c2: 81 e2 95 af e2 95            	andl	$2514661269, %edx       # imm = 0x95E2AF95
  4046c8: b0 e2                        	movb	$-30, %al
  4046ca: 95                           	xchgl	%ebp, %eax
  4046cb: af                           	scasl	%es:(%rdi), %eax
  4046cc: e2 95                        	loop	0x404663 <.rodata+0x663>
  4046ce: b0 e2                        	movb	$-30, %al
  4046d0: 94                           	xchgl	%esp, %eax
  4046d1: 81 e2 94 81 e2 94            	andl	$2497872276, %edx       # imm = 0x94E28194
  4046d7: bb e2 95 af e2               	movl	$3803157986, %ebx       # imm = 0xE2AF95E2
  4046dc: 95                           	xchgl	%ebp, %eax
  4046dd: b0 e2                        	movb	$-30, %al
  4046df: 94                           	xchgl	%esp, %eax
  4046e0: bb e2 94 81 e2               	movl	$3800143074, %ebx       # imm = 0xE28194E2
  4046e5: 94                           	xchgl	%esp, %eax
  4046e6: bb e2 94 81 e2               	movl	$3800143074, %ebx       # imm = 0xE28194E2
  4046eb: 94                           	xchgl	%esp, %eax
  4046ec: 81 e2 94 bb e2 95            	andl	$2514664340, %edx       # imm = 0x95E2BB94
  4046f2: af                           	scasl	%es:(%rdi), %eax
  4046f3: e2 95                        	loop	0x40468a <.rodata+0x68a>
  4046f5: b0 e2                        	movb	$-30, %al
  4046f7: 94                           	xchgl	%esp, %eax
  4046f8: 81 e2 94 81 e2 94            	andl	$2497872276, %edx       # imm = 0x94E28194
  4046fe: bb e2 95 af e2               	movl	$3803157986, %ebx       # imm = 0xE2AF95E2
  404703: 95                           	xchgl	%ebp, %eax
  404704: b1 e2                        	movb	$-30, %cl
  404706: 95                           	xchgl	%ebp, %eax
  404707: b0 e2                        	movb	$-30, %al
  404709: 94                           	xchgl	%esp, %eax
  40470a: 81 e2 94 81 e2 95            	andl	$2514649492, %edx       # imm = 0x95E28194
  404710: af                           	scasl	%es:(%rdi), %eax
  404711: e2 95                        	loop	0x4046a8 <.rodata+0x6a8>
  404713: b0 e2                        	movb	$-30, %al
  404715: 94                           	xchgl	%esp, %eax
  404716: 81 e2 94 81 e2 94            	andl	$2497872276, %edx       # imm = 0x94E28194
  40471c: 81 e2 94 bb e2 94            	andl	$2497887124, %edx       # imm = 0x94E2BB94
  404722: 81 e2 94 81 e2 94            	andl	$2497872276, %edx       # imm = 0x94E28194
  404728: bb e2 94 bb e2               	movl	$3803944162, %ebx       # imm = 0xE2BB94E2
  40472d: 94                           	xchgl	%esp, %eax
  40472e: 81 e2 94 bb e2 94            	andl	$2497887124, %edx       # imm = 0x94E2BB94
  404734: 81 e2 94 81 e2 95            	andl	$2514649492, %edx       # imm = 0x95E28194
  40473a: af                           	scasl	%es:(%rdi), %eax
  40473b: 0a 20                        	orb	(%rax), %ah
  40473d: 20 20                        	andb	%ah, (%rax)
  40473f: 20 20                        	andb	%ah, (%rax)
  404741: 20 20                        	andb	%ah, (%rax)
  404743: 20 20                        	andb	%ah, (%rax)
  404745: 20 20                        	andb	%ah, (%rax)
  404747: 20 20                        	andb	%ah, (%rax)
  404749: 20 20                        	andb	%ah, (%rax)
  40474b: 20 20                        	andb	%ah, (%rax)
  40474d: 20 20                        	andb	%ah, (%rax)
  40474f: 20 20                        	andb	%ah, (%rax)
  404751: 20 20                        	andb	%ah, (%rax)
  404753: 20 20                        	andb	%ah, (%rax)
  404755: 20 20                        	andb	%ah, (%rax)
  404757: 20 20                        	andb	%ah, (%rax)
  404759: 20 20                        	andb	%ah, (%rax)
  40475b: 20 20                        	andb	%ah, (%rax)
  40475d: 20 20                        	andb	%ah, (%rax)
  40475f: 20 20                        	andb	%ah, (%rax)
  404761: 20 20                        	andb	%ah, (%rax)
  404763: 20 20                        	andb	%ah, (%rax)
  404765: 20 20                        	andb	%ah, (%rax)
  404767: 20 20                        	andb	%ah, (%rax)
  404769: 20 20                        	andb	%ah, (%rax)
  40476b: 20 20                        	andb	%ah, (%rax)
  40476d: 20 20                        	andb	%ah, (%rax)
  40476f: 20 20                        	andb	%ah, (%rax)
  404771: 20 20                        	andb	%ah, (%rax)
  404773: 20 20                        	andb	%ah, (%rax)
  404775: 20 20                        	andb	%ah, (%rax)
  404777: 0a 00                        	orb	(%rax), %al
  404779: 00 00                        	addb	%al, (%rax)
  40477b: 00 00                        	addb	%al, (%rax)
  40477d: 00 00                        	addb	%al, (%rax)
  40477f: 00 e2                        	addb	%ah, %dl
  404781: 95                           	xchgl	%ebp, %eax
  404782: 94                           	xchgl	%esp, %eax
  404783: e2 95                        	loop	0x40471a <.rodata+0x71a>
  404785: 90                           	nop
  404786: 20 4d 41                     	andb	%cl, 65(%rbp)
  404789: 49 4e                        	<unknown>
  40478b: 20 4d 45                     	andb	%cl, 69(%rbp)
  40478e: 4e 55                        	pushq	%rbp
  404790: 20 e2                        	andb	%ah, %dl
  404792: 95                           	xchgl	%ebp, %eax
  404793: 90                           	nop
  404794: e2 95                        	loop	0x40472b <.rodata+0x72b>
  404796: 90                           	nop
  404797: e2 95                        	loop	0x40472e <.rodata+0x72e>
  404799: 90                           	nop
  40479a: e2 95                        	loop	0x404731 <.rodata+0x731>
  40479c: 90                           	nop
  40479d: e2 95                        	loop	0x404734 <.rodata+0x734>
  40479f: 90                           	nop
  4047a0: e2 95                        	loop	0x404737 <.rodata+0x737>
  4047a2: 90                           	nop
  4047a3: e2 95                        	loop	0x40473a <.rodata+0x73a>
  4047a5: 90                           	nop
  4047a6: e2 95                        	loop	0x40473d <.rodata+0x73d>
  4047a8: 90                           	nop
  4047a9: e2 95                        	loop	0x404740 <.rodata+0x740>
  4047ab: 90                           	nop
  4047ac: e2 95                        	loop	0x404743 <.rodata+0x743>
  4047ae: 90                           	nop
  4047af: e2 95                        	loop	0x404746 <.rodata+0x746>
  4047b1: 90                           	nop
  4047b2: e2 95                        	loop	0x404749 <.rodata+0x749>
  4047b4: 90                           	nop
  4047b5: e2 95                        	loop	0x40474c <.rodata+0x74c>
  4047b7: 90                           	nop
  4047b8: e2 95                        	loop	0x40474f <.rodata+0x74f>
  4047ba: 90                           	nop
  4047bb: e2 95                        	loop	0x404752 <.rodata+0x752>
  4047bd: 90                           	nop
  4047be: e2 95                        	loop	0x404755 <.rodata+0x755>
  4047c0: 90                           	nop
  4047c1: e2 95                        	loop	0x404758 <.rodata+0x758>
  4047c3: 90                           	nop
  4047c4: e2 95                        	loop	0x40475b <.rodata+0x75b>
  4047c6: 90                           	nop
  4047c7: e2 95                        	loop	0x40475e <.rodata+0x75e>
  4047c9: 90                           	nop
  4047ca: e2 95                        	loop	0x404761 <.rodata+0x761>
  4047cc: 90                           	nop
  4047cd: e2 95                        	loop	0x404764 <.rodata+0x764>
  4047cf: 90                           	nop
  4047d0: e2 95                        	loop	0x404767 <.rodata+0x767>
  4047d2: 90                           	nop
  4047d3: e2 95                        	loop	0x40476a <.rodata+0x76a>
  4047d5: 90                           	nop
  4047d6: e2 95                        	loop	0x40476d <.rodata+0x76d>
  4047d8: 90                           	nop
  4047d9: e2 95                        	loop	0x404770 <.rodata+0x770>
  4047db: 90                           	nop
  4047dc: e2 95                        	loop	0x404773 <.rodata+0x773>
  4047de: 90                           	nop
  4047df: e2 95                        	loop	0x404776 <.rodata+0x776>
  4047e1: 90                           	nop
  4047e2: e2 95                        	loop	0x404779 <.rodata+0x779>
  4047e4: 90                           	nop
  4047e5: e2 95                        	loop	0x40477c <.rodata+0x77c>
  4047e7: 90                           	nop
  4047e8: e2 95                        	loop	0x40477f <.rodata+0x77f>
  4047ea: 90                           	nop
  4047eb: e2 95                        	loop	0x404782 <.rodata+0x782>
  4047ed: 90                           	nop
  4047ee: e2 95                        	loop	0x404785 <.rodata+0x785>
  4047f0: 90                           	nop
  4047f1: e2 95                        	loop	0x404788 <.rodata+0x788>
  4047f3: 90                           	nop
  4047f4: e2 95                        	loop	0x40478b <.rodata+0x78b>
  4047f6: 90                           	nop
  4047f7: e2 95                        	loop	0x40478e <.rodata+0x78e>
  4047f9: 90                           	nop
  4047fa: e2 95                        	loop	0x404791 <.rodata+0x791>
  4047fc: 90                           	nop
  4047fd: e2 95                        	loop	0x404794 <.rodata+0x794>
  4047ff: 90                           	nop
  404800: e2 95                        	loop	0x404797 <.rodata+0x797>
  404802: 90                           	nop
  404803: e2 95                        	loop	0x40479a <.rodata+0x79a>
  404805: 90                           	nop
  404806: e2 95                        	loop	0x40479d <.rodata+0x79d>
  404808: 90                           	nop
  404809: e2 95                        	loop	0x4047a0 <.rodata+0x7a0>
  40480b: 90                           	nop
  40480c: e2 95                        	loop	0x4047a3 <.rodata+0x7a3>
  40480e: 90                           	nop
  40480f: e2 95                        	loop	0x4047a6 <.rodata+0x7a6>
  404811: 90                           	nop
  404812: e2 95                        	loop	0x4047a9 <.rodata+0x7a9>
  404814: 90                           	nop
  404815: e2 95                        	loop	0x4047ac <.rodata+0x7ac>
  404817: 97                           	xchgl	%edi, %eax
  404818: 0a e2                        	orb	%dl, %ah
  40481a: 95                           	xchgl	%ebp, %eax
  40481b: 91                           	xchgl	%ecx, %eax
  40481c: 20 20                        	andb	%ah, (%rax)
  40481e: 31 2e                        	xorl	%ebp, (%rsi)
  404820: 20 52 65                     	andb	%dl, 101(%rdx)
  404823: 67 69 73 74 65 72 20 6e      	imull	$1847620197, 116(%ebx), %esi # imm = 0x6E207265
  40482b: 65 77 20                     	ja	0x40484e <.rodata+0x84e>
  40482e: 70 6c                        	jo	0x40489c <.rodata+0x89c>
  404830: 61                           	<unknown>
  404831: 79 65                        	jns	0x404898 <.rodata+0x898>
  404833: 72 20                        	jb	0x404855 <.rodata+0x855>
  404835: 28 6d 61                     	subb	%ch, 97(%rbp)
  404838: 78 2e                        	js	0x404868 <.rodata+0x868>
  40483a: 20 33                        	andb	%dh, (%rbx)
  40483c: 29 20                        	subl	%esp, (%rax)
  40483e: 20 20                        	andb	%ah, (%rax)
  404840: 20 20                        	andb	%ah, (%rax)
  404842: 20 20                        	andb	%ah, (%rax)
  404844: 20 20                        	andb	%ah, (%rax)
  404846: 20 20                        	andb	%ah, (%rax)
  404848: 20 20                        	andb	%ah, (%rax)
  40484a: 20 20                        	andb	%ah, (%rax)
  40484c: 20 20                        	andb	%ah, (%rax)
  40484e: 20 20                        	andb	%ah, (%rax)
  404850: 20 20                        	andb	%ah, (%rax)
  404852: 20 20                        	andb	%ah, (%rax)
  404854: e2 95                        	loop	0x4047eb <.rodata+0x7eb>
  404856: 91                           	xchgl	%ecx, %eax
  404857: 0a e2                        	orb	%dl, %ah
  404859: 95                           	xchgl	%ebp, %eax
  40485a: 91                           	xchgl	%ecx, %eax
  40485b: 20 20                        	andb	%ah, (%rax)
  40485d: 32 2e                        	xorb	(%rsi), %ch
  40485f: 20 45 64                     	andb	%al, 100(%rbp)
  404862: 69 74 20 70 6c 61 79 65      	imull	$1702453612, 112(%rax,%riz), %esi # imm = 0x6579616C
  40486a: 72 20                        	jb	0x40488c <.rodata+0x88c>
  40486c: 69 6e 66 6f 72 6d 61         	imull	$1634562671, 102(%rsi), %ebp # imm = 0x616D726F
  404873: 74 69                        	je	0x4048de <.rodata+0x8de>
  404875: 6f                           	outsl	(%rsi), %dx
  404876: 6e                           	outsb	(%rsi), %dx
  404877: 20 20                        	andb	%ah, (%rax)
  404879: 20 20                        	andb	%ah, (%rax)
  40487b: 20 20                        	andb	%ah, (%rax)
  40487d: 20 20                        	andb	%ah, (%rax)
  40487f: 20 20                        	andb	%ah, (%rax)
  404881: 20 20                        	andb	%ah, (%rax)
  404883: 20 20                        	andb	%ah, (%rax)
  404885: 20 20                        	andb	%ah, (%rax)
  404887: 20 20                        	andb	%ah, (%rax)
  404889: 20 20                        	andb	%ah, (%rax)
  40488b: 20 20                        	andb	%ah, (%rax)
  40488d: 20 20                        	andb	%ah, (%rax)
  40488f: 20 20                        	andb	%ah, (%rax)
  404891: 20 20                        	andb	%ah, (%rax)
  404893: e2 95                        	loop	0x40482a <.rodata+0x82a>
  404895: 91                           	xchgl	%ecx, %eax
  404896: 0a e2                        	orb	%dl, %ah
  404898: 95                           	xchgl	%ebp, %eax
  404899: 91                           	xchgl	%ecx, %eax
  40489a: 20 20                        	andb	%ah, (%rax)
  40489c: 33 2e                        	xorl	(%rsi), %ebp
  40489e: 20 43 68                     	andb	%al, 104(%rbx)
  4048a1: 65 63 6b 20                  	movslq	%gs:32(%rbx), %ebp
  4048a5: 71 75                        	jno	0x40491c <.rodata+0x91c>
  4048a7: 65 73 74                     	jae	0x40491e <.rodata+0x91e>
  4048aa: 20 62 6f                     	andb	%ah, 111(%rdx)
  4048ad: 61                           	<unknown>
  4048ae: 72 64                        	jb	0x404914 <.rodata+0x914>
  4048b0: 20 20                        	andb	%ah, (%rax)
  4048b2: 20 20                        	andb	%ah, (%rax)
  4048b4: 20 20                        	andb	%ah, (%rax)
  4048b6: 20 20                        	andb	%ah, (%rax)
  4048b8: 20 20                        	andb	%ah, (%rax)
  4048ba: 20 20                        	andb	%ah, (%rax)
  4048bc: 20 20                        	andb	%ah, (%rax)
  4048be: 20 20                        	andb	%ah, (%rax)
  4048c0: 20 20                        	andb	%ah, (%rax)
  4048c2: 20 20                        	andb	%ah, (%rax)
  4048c4: 20 20                        	andb	%ah, (%rax)
  4048c6: 20 20                        	andb	%ah, (%rax)
  4048c8: 20 20                        	andb	%ah, (%rax)
  4048ca: 20 20                        	andb	%ah, (%rax)
  4048cc: 20 20                        	andb	%ah, (%rax)
  4048ce: 20 20                        	andb	%ah, (%rax)
  4048d0: 20 20                        	andb	%ah, (%rax)
  4048d2: e2 95                        	loop	0x404869 <.rodata+0x869>
  4048d4: 91                           	xchgl	%ecx, %eax
  4048d5: 0a e2                        	orb	%dl, %ah
  4048d7: 95                           	xchgl	%ebp, %eax
  4048d8: 91                           	xchgl	%ecx, %eax
  4048d9: 20 20                        	andb	%ah, (%rax)
  4048db: 34 2e                        	xorb	$46, %al
  4048dd: 20 45 78                     	andb	%al, 120(%rbp)
  4048e0: 69 74 20 20 20 20 20 20      	imull	$538976288, 32(%rax,%riz), %esi # imm = 0x20202020
  4048e8: 20 20                        	andb	%ah, (%rax)
  4048ea: 20 20                        	andb	%ah, (%rax)
  4048ec: 20 20                        	andb	%ah, (%rax)
  4048ee: 20 20                        	andb	%ah, (%rax)
  4048f0: 20 20                        	andb	%ah, (%rax)
  4048f2: 20 20                        	andb	%ah, (%rax)
  4048f4: 20 20                        	andb	%ah, (%rax)
  4048f6: 20 20                        	andb	%ah, (%rax)
  4048f8: 20 20                        	andb	%ah, (%rax)
  4048fa: 20 20                        	andb	%ah, (%rax)
  4048fc: 20 20                        	andb	%ah, (%rax)
  4048fe: 20 20                        	andb	%ah, (%rax)
  404900: 20 20                        	andb	%ah, (%rax)
  404902: 20 20                        	andb	%ah, (%rax)
  404904: 20 20                        	andb	%ah, (%rax)
  404906: 20 20                        	andb	%ah, (%rax)
  404908: 20 20                        	andb	%ah, (%rax)
  40490a: 20 20                        	andb	%ah, (%rax)
  40490c: 20 20                        	andb	%ah, (%rax)
  40490e: 20 20                        	andb	%ah, (%rax)
  404910: 20 e2                        	andb	%ah, %dl
  404912: 95                           	xchgl	%ebp, %eax
  404913: 91                           	xchgl	%ecx, %eax
  404914: 0a e2                        	orb	%dl, %ah
  404916: 95                           	xchgl	%ebp, %eax
  404917: 9a                           	<unknown>
  404918: e2 95                        	loop	0x4048af <.rodata+0x8af>
  40491a: 90                           	nop
  40491b: e2 95                        	loop	0x4048b2 <.rodata+0x8b2>
  40491d: 90                           	nop
  40491e: e2 95                        	loop	0x4048b5 <.rodata+0x8b5>
  404920: 90                           	nop
  404921: e2 95                        	loop	0x4048b8 <.rodata+0x8b8>
  404923: 90                           	nop
  404924: e2 95                        	loop	0x4048bb <.rodata+0x8bb>
  404926: 90                           	nop
  404927: e2 95                        	loop	0x4048be <.rodata+0x8be>
  404929: 90                           	nop
  40492a: e2 95                        	loop	0x4048c1 <.rodata+0x8c1>
  40492c: 90                           	nop
  40492d: e2 95                        	loop	0x4048c4 <.rodata+0x8c4>
  40492f: 90                           	nop
  404930: e2 95                        	loop	0x4048c7 <.rodata+0x8c7>
  404932: 90                           	nop
  404933: e2 95                        	loop	0x4048ca <.rodata+0x8ca>
  404935: 90                           	nop
  404936: e2 95                        	loop	0x4048cd <.rodata+0x8cd>
  404938: 90                           	nop
  404939: e2 95                        	loop	0x4048d0 <.rodata+0x8d0>
  40493b: 90                           	nop
  40493c: e2 95                        	loop	0x4048d3 <.rodata+0x8d3>
  40493e: 90                           	nop
  40493f: e2 95                        	loop	0x4048d6 <.rodata+0x8d6>
  404941: 90                           	nop
  404942: e2 95                        	loop	0x4048d9 <.rodata+0x8d9>
  404944: 90                           	nop
  404945: e2 95                        	loop	0x4048dc <.rodata+0x8dc>
  404947: 90                           	nop
  404948: e2 95                        	loop	0x4048df <.rodata+0x8df>
  40494a: 90                           	nop
  40494b: e2 95                        	loop	0x4048e2 <.rodata+0x8e2>
  40494d: 90                           	nop
  40494e: e2 95                        	loop	0x4048e5 <.rodata+0x8e5>
  404950: 90                           	nop
  404951: e2 95                        	loop	0x4048e8 <.rodata+0x8e8>
  404953: 90                           	nop
  404954: e2 95                        	loop	0x4048eb <.rodata+0x8eb>
  404956: 90                           	nop
  404957: e2 95                        	loop	0x4048ee <.rodata+0x8ee>
  404959: 90                           	nop
  40495a: e2 95                        	loop	0x4048f1 <.rodata+0x8f1>
  40495c: 90                           	nop
  40495d: e2 95                        	loop	0x4048f4 <.rodata+0x8f4>
  40495f: 90                           	nop
  404960: e2 95                        	loop	0x4048f7 <.rodata+0x8f7>
  404962: 90                           	nop
  404963: e2 95                        	loop	0x4048fa <.rodata+0x8fa>
  404965: 90                           	nop
  404966: e2 95                        	loop	0x4048fd <.rodata+0x8fd>
  404968: 90                           	nop
  404969: e2 95                        	loop	0x404900 <.rodata+0x900>
  40496b: 90                           	nop
  40496c: e2 95                        	loop	0x404903 <.rodata+0x903>
  40496e: 90                           	nop
  40496f: e2 95                        	loop	0x404906 <.rodata+0x906>
  404971: 90                           	nop
  404972: e2 95                        	loop	0x404909 <.rodata+0x909>
  404974: 90                           	nop
  404975: e2 95                        	loop	0x40490c <.rodata+0x90c>
  404977: 90                           	nop
  404978: e2 95                        	loop	0x40490f <.rodata+0x90f>
  40497a: 90                           	nop
  40497b: e2 95                        	loop	0x404912 <.rodata+0x912>
  40497d: 90                           	nop
  40497e: e2 95                        	loop	0x404915 <.rodata+0x915>
  404980: 90                           	nop
  404981: e2 95                        	loop	0x404918 <.rodata+0x918>
  404983: 90                           	nop
  404984: e2 95                        	loop	0x40491b <.rodata+0x91b>
  404986: 90                           	nop
  404987: e2 95                        	loop	0x40491e <.rodata+0x91e>
  404989: 90                           	nop
  40498a: e2 95                        	loop	0x404921 <.rodata+0x921>
  40498c: 90                           	nop
  40498d: e2 95                        	loop	0x404924 <.rodata+0x924>
  40498f: 90                           	nop
  404990: e2 95                        	loop	0x404927 <.rodata+0x927>
  404992: 90                           	nop
  404993: e2 95                        	loop	0x40492a <.rodata+0x92a>
  404995: 90                           	nop
  404996: e2 95                        	loop	0x40492d <.rodata+0x92d>
  404998: 90                           	nop
  404999: e2 95                        	loop	0x404930 <.rodata+0x930>
  40499b: 90                           	nop
  40499c: e2 95                        	loop	0x404933 <.rodata+0x933>
  40499e: 90                           	nop
  40499f: e2 95                        	loop	0x404936 <.rodata+0x936>
  4049a1: 90                           	nop
  4049a2: e2 95                        	loop	0x404939 <.rodata+0x939>
  4049a4: 90                           	nop
  4049a5: e2 95                        	loop	0x40493c <.rodata+0x93c>
  4049a7: 90                           	nop
  4049a8: e2 95                        	loop	0x40493f <.rodata+0x93f>
  4049aa: 90                           	nop
  4049ab: e2 95                        	loop	0x404942 <.rodata+0x942>
  4049ad: 90                           	nop
  4049ae: e2 95                        	loop	0x404945 <.rodata+0x945>
  4049b0: 90                           	nop
  4049b1: e2 95                        	loop	0x404948 <.rodata+0x948>
  4049b3: 90                           	nop
  4049b4: e2 95                        	loop	0x40494b <.rodata+0x94b>
  4049b6: 90                           	nop
  4049b7: e2 95                        	loop	0x40494e <.rodata+0x94e>
  4049b9: 90                           	nop
  4049ba: e2 95                        	loop	0x404951 <.rodata+0x951>
  4049bc: 90                           	nop
  4049bd: e2 95                        	loop	0x404954 <.rodata+0x954>
  4049bf: 90                           	nop
  4049c0: e2 95                        	loop	0x404957 <.rodata+0x957>
  4049c2: 9d                           	popfq
  4049c3: 0a 20                        	orb	(%rax), %ah
  4049c5: 20 20                        	andb	%ah, (%rax)
  4049c7: 20 20                        	andb	%ah, (%rax)
  4049c9: 20 20                        	andb	%ah, (%rax)
  4049cb: 20 20                        	andb	%ah, (%rax)
  4049cd: 20 20                        	andb	%ah, (%rax)
  4049cf: 20 20                        	andb	%ah, (%rax)
  4049d1: 20 20                        	andb	%ah, (%rax)
  4049d3: 20 20                        	andb	%ah, (%rax)
  4049d5: 20 20                        	andb	%ah, (%rax)
  4049d7: 20 20                        	andb	%ah, (%rax)
  4049d9: 20 20                        	andb	%ah, (%rax)
  4049db: 20 20                        	andb	%ah, (%rax)
  4049dd: 20 20                        	andb	%ah, (%rax)
  4049df: 20 20                        	andb	%ah, (%rax)
  4049e1: 20 20                        	andb	%ah, (%rax)
  4049e3: 20 20                        	andb	%ah, (%rax)
  4049e5: 20 20                        	andb	%ah, (%rax)
  4049e7: 20 20                        	andb	%ah, (%rax)
  4049e9: 20 20                        	andb	%ah, (%rax)
  4049eb: 20 20                        	andb	%ah, (%rax)
  4049ed: 20 20                        	andb	%ah, (%rax)
  4049ef: 20 20                        	andb	%ah, (%rax)
  4049f1: 20 20                        	andb	%ah, (%rax)
  4049f3: 20 20                        	andb	%ah, (%rax)
  4049f5: 20 20                        	andb	%ah, (%rax)
  4049f7: 20 20                        	andb	%ah, (%rax)
  4049f9: 20 20                        	andb	%ah, (%rax)
  4049fb: 20 20                        	andb	%ah, (%rax)
  4049fd: 20 0a                        	andb	%cl, (%rdx)
  4049ff: 00 20                        	addb	%ah, (%rax)
  404a01: 20 20                        	andb	%ah, (%rax)
  404a03: 20 20                        	andb	%ah, (%rax)
  404a05: 20 20                        	andb	%ah, (%rax)
  404a07: 20 20                        	andb	%ah, (%rax)
  404a09: 20 20                        	andb	%ah, (%rax)
  404a0b: 20 20                        	andb	%ah, (%rax)
  404a0d: 20 20                        	andb	%ah, (%rax)
  404a0f: 20 20                        	andb	%ah, (%rax)
  404a11: 20 20                        	andb	%ah, (%rax)
  404a13: 20 20                        	andb	%ah, (%rax)
  404a15: 5b                           	popq	%rbx
  404a16: 20 43 55                     	andb	%al, 85(%rbx)
  404a19: 52                           	pushq	%rdx
  404a1a: 52                           	pushq	%rdx
  404a1b: 45 4e                        	<unknown>
  404a1d: 54                           	pushq	%rsp
  404a1e: 20 50 41                     	andb	%dl, 65(%rax)
  404a21: 52                           	pushq	%rdx
  404a22: 54                           	pushq	%rsp
  404a23: 59                           	popq	%rcx
  404a24: 20 5d 00                     	andb	%bl, (%rbp)
  404a27: 00 e2                        	addb	%ah, %dl
  404a29: 95                           	xchgl	%ebp, %eax
  404a2a: 94                           	xchgl	%esp, %eax
  404a2b: e2 95                        	loop	0x4049c2 <.rodata+0x9c2>
  404a2d: 90                           	nop
  404a2e: e2 95                        	loop	0x4049c5 <.rodata+0x9c5>
  404a30: 90                           	nop
  404a31: e2 95                        	loop	0x4049c8 <.rodata+0x9c8>
  404a33: 90                           	nop
  404a34: e2 95                        	loop	0x4049cb <.rodata+0x9cb>
  404a36: 90                           	nop
  404a37: e2 95                        	loop	0x4049ce <.rodata+0x9ce>
  404a39: 90                           	nop
  404a3a: e2 95                        	loop	0x4049d1 <.rodata+0x9d1>
  404a3c: 90                           	nop
  404a3d: e2 95                        	loop	0x4049d4 <.rodata+0x9d4>
  404a3f: 90                           	nop
  404a40: e2 95                        	loop	0x4049d7 <.rodata+0x9d7>
  404a42: 90                           	nop
  404a43: e2 95                        	loop	0x4049da <.rodata+0x9da>
  404a45: 90                           	nop
  404a46: e2 95                        	loop	0x4049dd <.rodata+0x9dd>
  404a48: 90                           	nop
  404a49: e2 95                        	loop	0x4049e0 <.rodata+0x9e0>
  404a4b: 90                           	nop
  404a4c: e2 95                        	loop	0x4049e3 <.rodata+0x9e3>
  404a4e: 90                           	nop
  404a4f: e2 95                        	loop	0x4049e6 <.rodata+0x9e6>
  404a51: 90                           	nop
  404a52: e2 95                        	loop	0x4049e9 <.rodata+0x9e9>
  404a54: 90                           	nop
  404a55: e2 95                        	loop	0x4049ec <.rodata+0x9ec>
  404a57: 90                           	nop
  404a58: e2 95                        	loop	0x4049ef <.rodata+0x9ef>
  404a5a: 90                           	nop
  404a5b: e2 95                        	loop	0x4049f2 <.rodata+0x9f2>
  404a5d: 90                           	nop
  404a5e: e2 95                        	loop	0x4049f5 <.rodata+0x9f5>
  404a60: 90                           	nop
  404a61: e2 95                        	loop	0x4049f8 <.rodata+0x9f8>
  404a63: 90                           	nop
  404a64: e2 95                        	loop	0x4049fb <.rodata+0x9fb>
  404a66: 90                           	nop
  404a67: e2 95                        	loop	0x4049fe <.rodata+0x9fe>
  404a69: 90                           	nop
  404a6a: e2 95                        	loop	0x404a01 <.rodata+0xa01>
  404a6c: 90                           	nop
  404a6d: e2 95                        	loop	0x404a04 <.rodata+0xa04>
  404a6f: 90                           	nop
  404a70: e2 95                        	loop	0x404a07 <.rodata+0xa07>
  404a72: 90                           	nop
  404a73: e2 95                        	loop	0x404a0a <.rodata+0xa0a>
  404a75: 90                           	nop
  404a76: e2 95                        	loop	0x404a0d <.rodata+0xa0d>
  404a78: 90                           	nop
  404a79: e2 95                        	loop	0x404a10 <.rodata+0xa10>
  404a7b: 90                           	nop
  404a7c: e2 95                        	loop	0x404a13 <.rodata+0xa13>
  404a7e: 90                           	nop
  404a7f: e2 95                        	loop	0x404a16 <.rodata+0xa16>
  404a81: 90                           	nop
  404a82: e2 95                        	loop	0x404a19 <.rodata+0xa19>
  404a84: 90                           	nop
  404a85: e2 95                        	loop	0x404a1c <.rodata+0xa1c>
  404a87: 90                           	nop
  404a88: e2 95                        	loop	0x404a1f <.rodata+0xa1f>
  404a8a: 90                           	nop
  404a8b: e2 95                        	loop	0x404a22 <.rodata+0xa22>
  404a8d: 90                           	nop
  404a8e: e2 95                        	loop	0x404a25 <.rodata+0xa25>
  404a90: 90                           	nop
  404a91: e2 95                        	loop	0x404a28 <.rodata+0xa28>
  404a93: 90                           	nop
  404a94: e2 95                        	loop	0x404a2b <.rodata+0xa2b>
  404a96: 90                           	nop
  404a97: e2 95                        	loop	0x404a2e <.rodata+0xa2e>
  404a99: 90                           	nop
  404a9a: e2 95                        	loop	0x404a31 <.rodata+0xa31>
  404a9c: 90                           	nop
  404a9d: e2 95                        	loop	0x404a34 <.rodata+0xa34>
  404a9f: 90                           	nop
  404aa0: e2 95                        	loop	0x404a37 <.rodata+0xa37>
  404aa2: 90                           	nop
  404aa3: e2 95                        	loop	0x404a3a <.rodata+0xa3a>
  404aa5: 90                           	nop
  404aa6: e2 95                        	loop	0x404a3d <.rodata+0xa3d>
  404aa8: 90                           	nop
  404aa9: e2 95                        	loop	0x404a40 <.rodata+0xa40>
  404aab: 90                           	nop
  404aac: e2 95                        	loop	0x404a43 <.rodata+0xa43>
  404aae: 90                           	nop
  404aaf: e2 95                        	loop	0x404a46 <.rodata+0xa46>
  404ab1: 90                           	nop
  404ab2: e2 95                        	loop	0x404a49 <.rodata+0xa49>
  404ab4: 90                           	nop
  404ab5: e2 95                        	loop	0x404a4c <.rodata+0xa4c>
  404ab7: 90                           	nop
  404ab8: e2 95                        	loop	0x404a4f <.rodata+0xa4f>
  404aba: 90                           	nop
  404abb: e2 95                        	loop	0x404a52 <.rodata+0xa52>
  404abd: 90                           	nop
  404abe: e2 95                        	loop	0x404a55 <.rodata+0xa55>
  404ac0: 90                           	nop
  404ac1: e2 95                        	loop	0x404a58 <.rodata+0xa58>
  404ac3: 90                           	nop
  404ac4: e2 95                        	loop	0x404a5b <.rodata+0xa5b>
  404ac6: 90                           	nop
  404ac7: e2 95                        	loop	0x404a5e <.rodata+0xa5e>
  404ac9: 90                           	nop
  404aca: e2 95                        	loop	0x404a61 <.rodata+0xa61>
  404acc: 90                           	nop
  404acd: e2 95                        	loop	0x404a64 <.rodata+0xa64>
  404acf: 90                           	nop
  404ad0: e2 95                        	loop	0x404a67 <.rodata+0xa67>
  404ad2: 90                           	nop
  404ad3: e2 95                        	loop	0x404a6a <.rodata+0xa6a>
  404ad5: 97                           	xchgl	%edi, %eax
  404ad6: 0a e2                        	orb	%dl, %ah
  404ad8: 95                           	xchgl	%ebp, %eax
  404ad9: 91                           	xchgl	%ecx, %eax
  404ada: 20 20                        	andb	%ah, (%rax)
  404adc: 59                           	popq	%rcx
  404add: 6f                           	outsl	(%rsi), %dx
  404ade: 75 72                        	jne	0x404b52 <.rodata+0xb52>
  404ae0: 20 70 61                     	andb	%dh, 97(%rax)
  404ae3: 72 74                        	jb	0x404b59 <.rodata+0xb59>
  404ae5: 79 20                        	jns	0x404b07 <.rodata+0xb07>
  404ae7: 68 61 73 20 72               	pushq	$1914729313             # imm = 0x72207361
  404aec: 65 61                        	<unknown>
  404aee: 63 68 65                     	movslq	101(%rax), %ebp
  404af1: 64 20 6d 61                  	andb	%ch, %fs:97(%rbp)
  404af5: 78 69                        	js	0x404b60 <.rodata+0xb60>
  404af7: 6d                           	insl	%dx, %es:(%rdi)
  404af8: 75 6d                        	jne	0x404b67 <.rodata+0xb67>
  404afa: 20 63 61                     	andb	%ah, 97(%rbx)
  404afd: 70 61                        	jo	0x404b60 <.rodata+0xb60>
  404aff: 63 69 74                     	movslq	116(%rcx), %ebp
  404b02: 79 21                        	jns	0x404b25 <.rodata+0xb25>
  404b04: 20 20                        	andb	%ah, (%rax)
  404b06: 20 20                        	andb	%ah, (%rax)
  404b08: 20 20                        	andb	%ah, (%rax)
  404b0a: 20 20                        	andb	%ah, (%rax)
  404b0c: 20 20                        	andb	%ah, (%rax)
  404b0e: 20 20                        	andb	%ah, (%rax)
  404b10: 20 20                        	andb	%ah, (%rax)
  404b12: e2 95                        	loop	0x404aa9 <.rodata+0xaa9>
  404b14: 91                           	xchgl	%ecx, %eax
  404b15: 0a e2                        	orb	%dl, %ah
  404b17: 95                           	xchgl	%ebp, %eax
  404b18: 9a                           	<unknown>
  404b19: e2 95                        	loop	0x404ab0 <.rodata+0xab0>
  404b1b: 90                           	nop
  404b1c: e2 95                        	loop	0x404ab3 <.rodata+0xab3>
  404b1e: 90                           	nop
  404b1f: e2 95                        	loop	0x404ab6 <.rodata+0xab6>
  404b21: 90                           	nop
  404b22: e2 95                        	loop	0x404ab9 <.rodata+0xab9>
  404b24: 90                           	nop
  404b25: e2 95                        	loop	0x404abc <.rodata+0xabc>
  404b27: 90                           	nop
  404b28: e2 95                        	loop	0x404abf <.rodata+0xabf>
  404b2a: 90                           	nop
  404b2b: e2 95                        	loop	0x404ac2 <.rodata+0xac2>
  404b2d: 90                           	nop
  404b2e: e2 95                        	loop	0x404ac5 <.rodata+0xac5>
  404b30: 90                           	nop
  404b31: e2 95                        	loop	0x404ac8 <.rodata+0xac8>
  404b33: 90                           	nop
  404b34: e2 95                        	loop	0x404acb <.rodata+0xacb>
  404b36: 90                           	nop
  404b37: e2 95                        	loop	0x404ace <.rodata+0xace>
  404b39: 90                           	nop
  404b3a: e2 95                        	loop	0x404ad1 <.rodata+0xad1>
  404b3c: 90                           	nop
  404b3d: e2 95                        	loop	0x404ad4 <.rodata+0xad4>
  404b3f: 90                           	nop
  404b40: e2 95                        	loop	0x404ad7 <.rodata+0xad7>
  404b42: 90                           	nop
  404b43: e2 95                        	loop	0x404ada <.rodata+0xada>
  404b45: 90                           	nop
  404b46: e2 95                        	loop	0x404add <.rodata+0xadd>
  404b48: 90                           	nop
  404b49: e2 95                        	loop	0x404ae0 <.rodata+0xae0>
  404b4b: 90                           	nop
  404b4c: e2 95                        	loop	0x404ae3 <.rodata+0xae3>
  404b4e: 90                           	nop
  404b4f: e2 95                        	loop	0x404ae6 <.rodata+0xae6>
  404b51: 90                           	nop
  404b52: e2 95                        	loop	0x404ae9 <.rodata+0xae9>
  404b54: 90                           	nop
  404b55: e2 95                        	loop	0x404aec <.rodata+0xaec>
  404b57: 90                           	nop
  404b58: e2 95                        	loop	0x404aef <.rodata+0xaef>
  404b5a: 90                           	nop
  404b5b: e2 95                        	loop	0x404af2 <.rodata+0xaf2>
  404b5d: 90                           	nop
  404b5e: e2 95                        	loop	0x404af5 <.rodata+0xaf5>
  404b60: 90                           	nop
  404b61: e2 95                        	loop	0x404af8 <.rodata+0xaf8>
  404b63: 90                           	nop
  404b64: e2 95                        	loop	0x404afb <.rodata+0xafb>
  404b66: 90                           	nop
  404b67: e2 95                        	loop	0x404afe <.rodata+0xafe>
  404b69: 90                           	nop
  404b6a: e2 95                        	loop	0x404b01 <.rodata+0xb01>
  404b6c: 90                           	nop
  404b6d: e2 95                        	loop	0x404b04 <.rodata+0xb04>
  404b6f: 90                           	nop
  404b70: e2 95                        	loop	0x404b07 <.rodata+0xb07>
  404b72: 90                           	nop
  404b73: e2 95                        	loop	0x404b0a <.rodata+0xb0a>
  404b75: 90                           	nop
  404b76: e2 95                        	loop	0x404b0d <.rodata+0xb0d>
  404b78: 90                           	nop
  404b79: e2 95                        	loop	0x404b10 <.rodata+0xb10>
  404b7b: 90                           	nop
  404b7c: e2 95                        	loop	0x404b13 <.rodata+0xb13>
  404b7e: 90                           	nop
  404b7f: e2 95                        	loop	0x404b16 <.rodata+0xb16>
  404b81: 90                           	nop
  404b82: e2 95                        	loop	0x404b19 <.rodata+0xb19>
  404b84: 90                           	nop
  404b85: e2 95                        	loop	0x404b1c <.rodata+0xb1c>
  404b87: 90                           	nop
  404b88: e2 95                        	loop	0x404b1f <.rodata+0xb1f>
  404b8a: 90                           	nop
  404b8b: e2 95                        	loop	0x404b22 <.rodata+0xb22>
  404b8d: 90                           	nop
  404b8e: e2 95                        	loop	0x404b25 <.rodata+0xb25>
  404b90: 90                           	nop
  404b91: e2 95                        	loop	0x404b28 <.rodata+0xb28>
  404b93: 90                           	nop
  404b94: e2 95                        	loop	0x404b2b <.rodata+0xb2b>
  404b96: 90                           	nop
  404b97: e2 95                        	loop	0x404b2e <.rodata+0xb2e>
  404b99: 90                           	nop
  404b9a: e2 95                        	loop	0x404b31 <.rodata+0xb31>
  404b9c: 90                           	nop
  404b9d: e2 95                        	loop	0x404b34 <.rodata+0xb34>
  404b9f: 90                           	nop
  404ba0: e2 95                        	loop	0x404b37 <.rodata+0xb37>
  404ba2: 90                           	nop
  404ba3: e2 95                        	loop	0x404b3a <.rodata+0xb3a>
  404ba5: 90                           	nop
  404ba6: e2 95                        	loop	0x404b3d <.rodata+0xb3d>
  404ba8: 90                           	nop
  404ba9: e2 95                        	loop	0x404b40 <.rodata+0xb40>
  404bab: 90                           	nop
  404bac: e2 95                        	loop	0x404b43 <.rodata+0xb43>
  404bae: 90                           	nop
  404baf: e2 95                        	loop	0x404b46 <.rodata+0xb46>
  404bb1: 90                           	nop
  404bb2: e2 95                        	loop	0x404b49 <.rodata+0xb49>
  404bb4: 90                           	nop
  404bb5: e2 95                        	loop	0x404b4c <.rodata+0xb4c>
  404bb7: 90                           	nop
  404bb8: e2 95                        	loop	0x404b4f <.rodata+0xb4f>
  404bba: 90                           	nop
  404bbb: e2 95                        	loop	0x404b52 <.rodata+0xb52>
  404bbd: 90                           	nop
  404bbe: e2 95                        	loop	0x404b55 <.rodata+0xb55>
  404bc0: 90                           	nop
  404bc1: e2 95                        	loop	0x404b58 <.rodata+0xb58>
  404bc3: 9d                           	popfq
  404bc4: 0a 00                        	orb	(%rax), %al
  404bc6: 00 00                        	addb	%al, (%rax)
  404bc8: e2 95                        	loop	0x404b5f <.rodata+0xb5f>
  404bca: 94                           	xchgl	%esp, %eax
  404bcb: e2 95                        	loop	0x404b62 <.rodata+0xb62>
  404bcd: 90                           	nop
  404bce: e2 95                        	loop	0x404b65 <.rodata+0xb65>
  404bd0: 90                           	nop
  404bd1: e2 95                        	loop	0x404b68 <.rodata+0xb68>
  404bd3: 90                           	nop
  404bd4: e2 95                        	loop	0x404b6b <.rodata+0xb6b>
  404bd6: 90                           	nop
  404bd7: e2 95                        	loop	0x404b6e <.rodata+0xb6e>
  404bd9: 90                           	nop
  404bda: e2 95                        	loop	0x404b71 <.rodata+0xb71>
  404bdc: 90                           	nop
  404bdd: e2 95                        	loop	0x404b74 <.rodata+0xb74>
  404bdf: 90                           	nop
  404be0: e2 95                        	loop	0x404b77 <.rodata+0xb77>
  404be2: 90                           	nop
  404be3: e2 95                        	loop	0x404b7a <.rodata+0xb7a>
  404be5: 90                           	nop
  404be6: e2 95                        	loop	0x404b7d <.rodata+0xb7d>
  404be8: 90                           	nop
  404be9: e2 95                        	loop	0x404b80 <.rodata+0xb80>
  404beb: 90                           	nop
  404bec: e2 95                        	loop	0x404b83 <.rodata+0xb83>
  404bee: 90                           	nop
  404bef: e2 95                        	loop	0x404b86 <.rodata+0xb86>
  404bf1: 90                           	nop
  404bf2: e2 95                        	loop	0x404b89 <.rodata+0xb89>
  404bf4: 90                           	nop
  404bf5: e2 95                        	loop	0x404b8c <.rodata+0xb8c>
  404bf7: 90                           	nop
  404bf8: e2 95                        	loop	0x404b8f <.rodata+0xb8f>
  404bfa: 90                           	nop
  404bfb: e2 95                        	loop	0x404b92 <.rodata+0xb92>
  404bfd: 90                           	nop
  404bfe: e2 95                        	loop	0x404b95 <.rodata+0xb95>
  404c00: 90                           	nop
  404c01: e2 95                        	loop	0x404b98 <.rodata+0xb98>
  404c03: 90                           	nop
  404c04: e2 95                        	loop	0x404b9b <.rodata+0xb9b>
  404c06: 90                           	nop
  404c07: e2 95                        	loop	0x404b9e <.rodata+0xb9e>
  404c09: 90                           	nop
  404c0a: e2 95                        	loop	0x404ba1 <.rodata+0xba1>
  404c0c: 90                           	nop
  404c0d: e2 95                        	loop	0x404ba4 <.rodata+0xba4>
  404c0f: 90                           	nop
  404c10: e2 95                        	loop	0x404ba7 <.rodata+0xba7>
  404c12: 90                           	nop
  404c13: e2 95                        	loop	0x404baa <.rodata+0xbaa>
  404c15: 90                           	nop
  404c16: e2 95                        	loop	0x404bad <.rodata+0xbad>
  404c18: 90                           	nop
  404c19: e2 95                        	loop	0x404bb0 <.rodata+0xbb0>
  404c1b: 90                           	nop
  404c1c: e2 95                        	loop	0x404bb3 <.rodata+0xbb3>
  404c1e: 90                           	nop
  404c1f: e2 95                        	loop	0x404bb6 <.rodata+0xbb6>
  404c21: 90                           	nop
  404c22: e2 95                        	loop	0x404bb9 <.rodata+0xbb9>
  404c24: 90                           	nop
  404c25: e2 95                        	loop	0x404bbc <.rodata+0xbbc>
  404c27: 90                           	nop
  404c28: e2 95                        	loop	0x404bbf <.rodata+0xbbf>
  404c2a: 90                           	nop
  404c2b: e2 95                        	loop	0x404bc2 <.rodata+0xbc2>
  404c2d: 90                           	nop
  404c2e: e2 95                        	loop	0x404bc5 <.rodata+0xbc5>
  404c30: 90                           	nop
  404c31: e2 95                        	loop	0x404bc8 <.rodata+0xbc8>
  404c33: 90                           	nop
  404c34: e2 95                        	loop	0x404bcb <.rodata+0xbcb>
  404c36: 90                           	nop
  404c37: e2 95                        	loop	0x404bce <.rodata+0xbce>
  404c39: 90                           	nop
  404c3a: e2 95                        	loop	0x404bd1 <.rodata+0xbd1>
  404c3c: 90                           	nop
  404c3d: e2 95                        	loop	0x404bd4 <.rodata+0xbd4>
  404c3f: 90                           	nop
  404c40: e2 95                        	loop	0x404bd7 <.rodata+0xbd7>
  404c42: 90                           	nop
  404c43: e2 95                        	loop	0x404bda <.rodata+0xbda>
  404c45: 90                           	nop
  404c46: e2 95                        	loop	0x404bdd <.rodata+0xbdd>
  404c48: 90                           	nop
  404c49: e2 95                        	loop	0x404be0 <.rodata+0xbe0>
  404c4b: 90                           	nop
  404c4c: e2 95                        	loop	0x404be3 <.rodata+0xbe3>
  404c4e: 90                           	nop
  404c4f: e2 95                        	loop	0x404be6 <.rodata+0xbe6>
  404c51: 90                           	nop
  404c52: e2 95                        	loop	0x404be9 <.rodata+0xbe9>
  404c54: 90                           	nop
  404c55: e2 95                        	loop	0x404bec <.rodata+0xbec>
  404c57: 90                           	nop
  404c58: e2 95                        	loop	0x404bef <.rodata+0xbef>
  404c5a: 90                           	nop
  404c5b: e2 95                        	loop	0x404bf2 <.rodata+0xbf2>
  404c5d: 90                           	nop
  404c5e: e2 95                        	loop	0x404bf5 <.rodata+0xbf5>
  404c60: 90                           	nop
  404c61: e2 95                        	loop	0x404bf8 <.rodata+0xbf8>
  404c63: 90                           	nop
  404c64: e2 95                        	loop	0x404bfb <.rodata+0xbfb>
  404c66: 90                           	nop
  404c67: e2 95                        	loop	0x404bfe <.rodata+0xbfe>
  404c69: 90                           	nop
  404c6a: e2 95                        	loop	0x404c01 <.rodata+0xc01>
  404c6c: 90                           	nop
  404c6d: e2 95                        	loop	0x404c04 <.rodata+0xc04>
  404c6f: 90                           	nop
  404c70: e2 95                        	loop	0x404c07 <.rodata+0xc07>
  404c72: 90                           	nop
  404c73: e2 95                        	loop	0x404c0a <.rodata+0xc0a>
  404c75: 97                           	xchgl	%edi, %eax
  404c76: 0a e2                        	orb	%dl, %ah
  404c78: 95                           	xchgl	%ebp, %eax
  404c79: 91                           	xchgl	%ecx, %eax
  404c7a: 20 20                        	andb	%ah, (%rax)
  404c7c: 59                           	popq	%rcx
  404c7d: 6f                           	outsl	(%rsi), %dx
  404c7e: 75 72                        	jne	0x404cf2 <.rodata+0xcf2>
  404c80: 20 70 61                     	andb	%dh, 97(%rax)
  404c83: 72 74                        	jb	0x404cf9 <.rodata+0xcf9>
  404c85: 79 20                        	jns	0x404ca7 <.rodata+0xca7>
  404c87: 64 6f                        	outsl	%fs:(%rsi), %dx
  404c89: 65 73 20                     	jae	0x404cac <.rodata+0xcac>
  404c8c: 6e                           	outsb	(%rsi), %dx
  404c8d: 6f                           	outsl	(%rsi), %dx
  404c8e: 74 20                        	je	0x404cb0 <.rodata+0xcb0>
  404c90: 68 61 76 65 20               	pushq	$543520353              # imm = 0x20657661
  404c95: 61                           	<unknown>
  404c96: 6e                           	outsb	(%rsi), %dx
  404c97: 79 20                        	jns	0x404cb9 <.rodata+0xcb9>
  404c99: 6d                           	insl	%dx, %es:(%rdi)
  404c9a: 65 6d                        	insl	%dx, %es:(%rdi)
  404c9c: 62                           	<unknown>
  404c9d: 65 72 73                     	jb	0x404d13 <.rodata+0xd13>
  404ca0: 20 79 65                     	andb	%bh, 101(%rcx)
  404ca3: 74 2e                        	je	0x404cd3 <.rodata+0xcd3>
  404ca5: 20 20                        	andb	%ah, (%rax)
  404ca7: 20 20                        	andb	%ah, (%rax)
  404ca9: 20 20                        	andb	%ah, (%rax)
  404cab: 20 20                        	andb	%ah, (%rax)
  404cad: 20 20                        	andb	%ah, (%rax)
  404caf: 20 20                        	andb	%ah, (%rax)
  404cb1: 20 e2                        	andb	%ah, %dl
  404cb3: 95                           	xchgl	%ebp, %eax
  404cb4: 91                           	xchgl	%ecx, %eax
  404cb5: 0a e2                        	orb	%dl, %ah
  404cb7: 95                           	xchgl	%ebp, %eax
  404cb8: 9a                           	<unknown>
  404cb9: e2 95                        	loop	0x404c50 <.rodata+0xc50>
  404cbb: 90                           	nop
  404cbc: e2 95                        	loop	0x404c53 <.rodata+0xc53>
  404cbe: 90                           	nop
  404cbf: e2 95                        	loop	0x404c56 <.rodata+0xc56>
  404cc1: 90                           	nop
  404cc2: e2 95                        	loop	0x404c59 <.rodata+0xc59>
  404cc4: 90                           	nop
  404cc5: e2 95                        	loop	0x404c5c <.rodata+0xc5c>
  404cc7: 90                           	nop
  404cc8: e2 95                        	loop	0x404c5f <.rodata+0xc5f>
  404cca: 90                           	nop
  404ccb: e2 95                        	loop	0x404c62 <.rodata+0xc62>
  404ccd: 90                           	nop
  404cce: e2 95                        	loop	0x404c65 <.rodata+0xc65>
  404cd0: 90                           	nop
  404cd1: e2 95                        	loop	0x404c68 <.rodata+0xc68>
  404cd3: 90                           	nop
  404cd4: e2 95                        	loop	0x404c6b <.rodata+0xc6b>
  404cd6: 90                           	nop
  404cd7: e2 95                        	loop	0x404c6e <.rodata+0xc6e>
  404cd9: 90                           	nop
  404cda: e2 95                        	loop	0x404c71 <.rodata+0xc71>
  404cdc: 90                           	nop
  404cdd: e2 95                        	loop	0x404c74 <.rodata+0xc74>
  404cdf: 90                           	nop
  404ce0: e2 95                        	loop	0x404c77 <.rodata+0xc77>
  404ce2: 90                           	nop
  404ce3: e2 95                        	loop	0x404c7a <.rodata+0xc7a>
  404ce5: 90                           	nop
  404ce6: e2 95                        	loop	0x404c7d <.rodata+0xc7d>
  404ce8: 90                           	nop
  404ce9: e2 95                        	loop	0x404c80 <.rodata+0xc80>
  404ceb: 90                           	nop
  404cec: e2 95                        	loop	0x404c83 <.rodata+0xc83>
  404cee: 90                           	nop
  404cef: e2 95                        	loop	0x404c86 <.rodata+0xc86>
  404cf1: 90                           	nop
  404cf2: e2 95                        	loop	0x404c89 <.rodata+0xc89>
  404cf4: 90                           	nop
  404cf5: e2 95                        	loop	0x404c8c <.rodata+0xc8c>
  404cf7: 90                           	nop
  404cf8: e2 95                        	loop	0x404c8f <.rodata+0xc8f>
  404cfa: 90                           	nop
  404cfb: e2 95                        	loop	0x404c92 <.rodata+0xc92>
  404cfd: 90                           	nop
  404cfe: e2 95                        	loop	0x404c95 <.rodata+0xc95>
  404d00: 90                           	nop
  404d01: e2 95                        	loop	0x404c98 <.rodata+0xc98>
  404d03: 90                           	nop
  404d04: e2 95                        	loop	0x404c9b <.rodata+0xc9b>
  404d06: 90                           	nop
  404d07: e2 95                        	loop	0x404c9e <.rodata+0xc9e>
  404d09: 90                           	nop
  404d0a: e2 95                        	loop	0x404ca1 <.rodata+0xca1>
  404d0c: 90                           	nop
  404d0d: e2 95                        	loop	0x404ca4 <.rodata+0xca4>
  404d0f: 90                           	nop
  404d10: e2 95                        	loop	0x404ca7 <.rodata+0xca7>
  404d12: 90                           	nop
  404d13: e2 95                        	loop	0x404caa <.rodata+0xcaa>
  404d15: 90                           	nop
  404d16: e2 95                        	loop	0x404cad <.rodata+0xcad>
  404d18: 90                           	nop
  404d19: e2 95                        	loop	0x404cb0 <.rodata+0xcb0>
  404d1b: 90                           	nop
  404d1c: e2 95                        	loop	0x404cb3 <.rodata+0xcb3>
  404d1e: 90                           	nop
  404d1f: e2 95                        	loop	0x404cb6 <.rodata+0xcb6>
  404d21: 90                           	nop
  404d22: e2 95                        	loop	0x404cb9 <.rodata+0xcb9>
  404d24: 90                           	nop
  404d25: e2 95                        	loop	0x404cbc <.rodata+0xcbc>
  404d27: 90                           	nop
  404d28: e2 95                        	loop	0x404cbf <.rodata+0xcbf>
  404d2a: 90                           	nop
  404d2b: e2 95                        	loop	0x404cc2 <.rodata+0xcc2>
  404d2d: 90                           	nop
  404d2e: e2 95                        	loop	0x404cc5 <.rodata+0xcc5>
  404d30: 90                           	nop
  404d31: e2 95                        	loop	0x404cc8 <.rodata+0xcc8>
  404d33: 90                           	nop
  404d34: e2 95                        	loop	0x404ccb <.rodata+0xccb>
  404d36: 90                           	nop
  404d37: e2 95                        	loop	0x404cce <.rodata+0xcce>
  404d39: 90                           	nop
  404d3a: e2 95                        	loop	0x404cd1 <.rodata+0xcd1>
  404d3c: 90                           	nop
  404d3d: e2 95                        	loop	0x404cd4 <.rodata+0xcd4>
  404d3f: 90                           	nop
  404d40: e2 95                        	loop	0x404cd7 <.rodata+0xcd7>
  404d42: 90                           	nop
  404d43: e2 95                        	loop	0x404cda <.rodata+0xcda>
  404d45: 90                           	nop
  404d46: e2 95                        	loop	0x404cdd <.rodata+0xcdd>
  404d48: 90                           	nop
  404d49: e2 95                        	loop	0x404ce0 <.rodata+0xce0>
  404d4b: 90                           	nop
  404d4c: e2 95                        	loop	0x404ce3 <.rodata+0xce3>
  404d4e: 90                           	nop
  404d4f: e2 95                        	loop	0x404ce6 <.rodata+0xce6>
  404d51: 90                           	nop
  404d52: e2 95                        	loop	0x404ce9 <.rodata+0xce9>
  404d54: 90                           	nop
  404d55: e2 95                        	loop	0x404cec <.rodata+0xcec>
  404d57: 90                           	nop
  404d58: e2 95                        	loop	0x404cef <.rodata+0xcef>
  404d5a: 90                           	nop
  404d5b: e2 95                        	loop	0x404cf2 <.rodata+0xcf2>
  404d5d: 90                           	nop
  404d5e: e2 95                        	loop	0x404cf5 <.rodata+0xcf5>
  404d60: 90                           	nop
  404d61: e2 95                        	loop	0x404cf8 <.rodata+0xcf8>
  404d63: 9d                           	popfq
  404d64: 0a 00                        	orb	(%rax), %al
  404d66: 00 00                        	addb	%al, (%rax)
  404d68: e2 95                        	loop	0x404cff <.rodata+0xcff>
  404d6a: 94                           	xchgl	%esp, %eax
  404d6b: e2 95                        	loop	0x404d02 <.rodata+0xd02>
  404d6d: 90                           	nop
  404d6e: e2 95                        	loop	0x404d05 <.rodata+0xd05>
  404d70: 90                           	nop
  404d71: e2 95                        	loop	0x404d08 <.rodata+0xd08>
  404d73: 90                           	nop
  404d74: e2 95                        	loop	0x404d0b <.rodata+0xd0b>
  404d76: 90                           	nop
  404d77: e2 95                        	loop	0x404d0e <.rodata+0xd0e>
  404d79: 90                           	nop
  404d7a: e2 95                        	loop	0x404d11 <.rodata+0xd11>
  404d7c: 90                           	nop
  404d7d: e2 95                        	loop	0x404d14 <.rodata+0xd14>
  404d7f: 90                           	nop
  404d80: e2 95                        	loop	0x404d17 <.rodata+0xd17>
  404d82: 90                           	nop
  404d83: e2 95                        	loop	0x404d1a <.rodata+0xd1a>
  404d85: 90                           	nop
  404d86: e2 95                        	loop	0x404d1d <.rodata+0xd1d>
  404d88: 90                           	nop
  404d89: e2 95                        	loop	0x404d20 <.rodata+0xd20>
  404d8b: 90                           	nop
  404d8c: e2 95                        	loop	0x404d23 <.rodata+0xd23>
  404d8e: 90                           	nop
  404d8f: e2 95                        	loop	0x404d26 <.rodata+0xd26>
  404d91: 90                           	nop
  404d92: e2 95                        	loop	0x404d29 <.rodata+0xd29>
  404d94: 90                           	nop
  404d95: e2 95                        	loop	0x404d2c <.rodata+0xd2c>
  404d97: 90                           	nop
  404d98: e2 95                        	loop	0x404d2f <.rodata+0xd2f>
  404d9a: 90                           	nop
  404d9b: e2 95                        	loop	0x404d32 <.rodata+0xd32>
  404d9d: 90                           	nop
  404d9e: e2 95                        	loop	0x404d35 <.rodata+0xd35>
  404da0: 90                           	nop
  404da1: e2 95                        	loop	0x404d38 <.rodata+0xd38>
  404da3: 90                           	nop
  404da4: e2 95                        	loop	0x404d3b <.rodata+0xd3b>
  404da6: 90                           	nop
  404da7: e2 95                        	loop	0x404d3e <.rodata+0xd3e>
  404da9: 90                           	nop
  404daa: e2 95                        	loop	0x404d41 <.rodata+0xd41>
  404dac: 90                           	nop
  404dad: e2 95                        	loop	0x404d44 <.rodata+0xd44>
  404daf: 90                           	nop
  404db0: e2 95                        	loop	0x404d47 <.rodata+0xd47>
  404db2: 90                           	nop
  404db3: e2 95                        	loop	0x404d4a <.rodata+0xd4a>
  404db5: 90                           	nop
  404db6: e2 95                        	loop	0x404d4d <.rodata+0xd4d>
  404db8: 90                           	nop
  404db9: e2 95                        	loop	0x404d50 <.rodata+0xd50>
  404dbb: 90                           	nop
  404dbc: e2 95                        	loop	0x404d53 <.rodata+0xd53>
  404dbe: 90                           	nop
  404dbf: e2 95                        	loop	0x404d56 <.rodata+0xd56>
  404dc1: 90                           	nop
  404dc2: e2 95                        	loop	0x404d59 <.rodata+0xd59>
  404dc4: 90                           	nop
  404dc5: e2 95                        	loop	0x404d5c <.rodata+0xd5c>
  404dc7: 90                           	nop
  404dc8: e2 95                        	loop	0x404d5f <.rodata+0xd5f>
  404dca: 90                           	nop
  404dcb: e2 95                        	loop	0x404d62 <.rodata+0xd62>
  404dcd: 90                           	nop
  404dce: e2 95                        	loop	0x404d65 <.rodata+0xd65>
  404dd0: 90                           	nop
  404dd1: e2 95                        	loop	0x404d68 <.rodata+0xd68>
  404dd3: 90                           	nop
  404dd4: e2 95                        	loop	0x404d6b <.rodata+0xd6b>
  404dd6: 90                           	nop
  404dd7: e2 95                        	loop	0x404d6e <.rodata+0xd6e>
  404dd9: 90                           	nop
  404dda: e2 95                        	loop	0x404d71 <.rodata+0xd71>
  404ddc: 90                           	nop
  404ddd: e2 95                        	loop	0x404d74 <.rodata+0xd74>
  404ddf: 90                           	nop
  404de0: e2 95                        	loop	0x404d77 <.rodata+0xd77>
  404de2: 90                           	nop
  404de3: e2 95                        	loop	0x404d7a <.rodata+0xd7a>
  404de5: 90                           	nop
  404de6: e2 95                        	loop	0x404d7d <.rodata+0xd7d>
  404de8: 90                           	nop
  404de9: e2 95                        	loop	0x404d80 <.rodata+0xd80>
  404deb: 90                           	nop
  404dec: e2 95                        	loop	0x404d83 <.rodata+0xd83>
  404dee: 90                           	nop
  404def: e2 95                        	loop	0x404d86 <.rodata+0xd86>
  404df1: 90                           	nop
  404df2: e2 95                        	loop	0x404d89 <.rodata+0xd89>
  404df4: 90                           	nop
  404df5: e2 95                        	loop	0x404d8c <.rodata+0xd8c>
  404df7: 90                           	nop
  404df8: e2 95                        	loop	0x404d8f <.rodata+0xd8f>
  404dfa: 90                           	nop
  404dfb: e2 95                        	loop	0x404d92 <.rodata+0xd92>
  404dfd: 90                           	nop
  404dfe: e2 95                        	loop	0x404d95 <.rodata+0xd95>
  404e00: 90                           	nop
  404e01: e2 95                        	loop	0x404d98 <.rodata+0xd98>
  404e03: 90                           	nop
  404e04: e2 95                        	loop	0x404d9b <.rodata+0xd9b>
  404e06: 90                           	nop
  404e07: e2 95                        	loop	0x404d9e <.rodata+0xd9e>
  404e09: 90                           	nop
  404e0a: e2 95                        	loop	0x404da1 <.rodata+0xda1>
  404e0c: 90                           	nop
  404e0d: e2 95                        	loop	0x404da4 <.rodata+0xda4>
  404e0f: 90                           	nop
  404e10: e2 95                        	loop	0x404da7 <.rodata+0xda7>
  404e12: 90                           	nop
  404e13: e2 95                        	loop	0x404daa <.rodata+0xdaa>
  404e15: 97                           	xchgl	%edi, %eax
  404e16: 0a e2                        	orb	%dl, %ah
  404e18: 95                           	xchgl	%ebp, %eax
  404e19: 91                           	xchgl	%ecx, %eax
  404e1a: 20 20                        	andb	%ah, (%rax)
  404e1c: 20 20                        	andb	%ah, (%rax)
  404e1e: 20 20                        	andb	%ah, (%rax)
  404e20: 20 20                        	andb	%ah, (%rax)
  404e22: 20 20                        	andb	%ah, (%rax)
  404e24: 20 20                        	andb	%ah, (%rax)
  404e26: 20 20                        	andb	%ah, (%rax)
  404e28: 20 20                        	andb	%ah, (%rax)
  404e2a: 20 20                        	andb	%ah, (%rax)
  404e2c: 50                           	pushq	%rax
  404e2d: 4c 41                        	<unknown>
  404e2f: 59                           	popq	%rcx
  404e30: 45 52                        	pushq	%r10
  404e32: 20 52 45                     	andb	%dl, 69(%rdx)
  404e35: 47 49                        	<unknown>
  404e37: 53                           	pushq	%rbx
  404e38: 54                           	pushq	%rsp
  404e39: 52                           	pushq	%rdx
  404e3a: 41 54                        	pushq	%r12
  404e3c: 49 4f                        	<unknown>
  404e3e: 4e 20 20                     	andb	%r12b, (%rax)
  404e41: 20 20                        	andb	%ah, (%rax)
  404e43: 20 20                        	andb	%ah, (%rax)
  404e45: 20 20                        	andb	%ah, (%rax)
  404e47: 20 20                        	andb	%ah, (%rax)
  404e49: 20 20                        	andb	%ah, (%rax)
  404e4b: 20 20                        	andb	%ah, (%rax)
  404e4d: 20 20                        	andb	%ah, (%rax)
  404e4f: 20 20                        	andb	%ah, (%rax)
  404e51: 20 e2                        	andb	%ah, %dl
  404e53: 95                           	xchgl	%ebp, %eax
  404e54: 91                           	xchgl	%ecx, %eax
  404e55: 0a e2                        	orb	%dl, %ah
  404e57: 95                           	xchgl	%ebp, %eax
  404e58: 9a                           	<unknown>
  404e59: e2 95                        	loop	0x404df0 <.rodata+0xdf0>
  404e5b: 90                           	nop
  404e5c: e2 95                        	loop	0x404df3 <.rodata+0xdf3>
  404e5e: 90                           	nop
  404e5f: e2 95                        	loop	0x404df6 <.rodata+0xdf6>
  404e61: 90                           	nop
  404e62: e2 95                        	loop	0x404df9 <.rodata+0xdf9>
  404e64: 90                           	nop
  404e65: e2 95                        	loop	0x404dfc <.rodata+0xdfc>
  404e67: 90                           	nop
  404e68: e2 95                        	loop	0x404dff <.rodata+0xdff>
  404e6a: 90                           	nop
  404e6b: e2 95                        	loop	0x404e02 <.rodata+0xe02>
  404e6d: 90                           	nop
  404e6e: e2 95                        	loop	0x404e05 <.rodata+0xe05>
  404e70: 90                           	nop
  404e71: e2 95                        	loop	0x404e08 <.rodata+0xe08>
  404e73: 90                           	nop
  404e74: e2 95                        	loop	0x404e0b <.rodata+0xe0b>
  404e76: 90                           	nop
  404e77: e2 95                        	loop	0x404e0e <.rodata+0xe0e>
  404e79: 90                           	nop
  404e7a: e2 95                        	loop	0x404e11 <.rodata+0xe11>
  404e7c: 90                           	nop
  404e7d: e2 95                        	loop	0x404e14 <.rodata+0xe14>
  404e7f: 90                           	nop
  404e80: e2 95                        	loop	0x404e17 <.rodata+0xe17>
  404e82: 90                           	nop
  404e83: e2 95                        	loop	0x404e1a <.rodata+0xe1a>
  404e85: 90                           	nop
  404e86: e2 95                        	loop	0x404e1d <.rodata+0xe1d>
  404e88: 90                           	nop
  404e89: e2 95                        	loop	0x404e20 <.rodata+0xe20>
  404e8b: 90                           	nop
  404e8c: e2 95                        	loop	0x404e23 <.rodata+0xe23>
  404e8e: 90                           	nop
  404e8f: e2 95                        	loop	0x404e26 <.rodata+0xe26>
  404e91: 90                           	nop
  404e92: e2 95                        	loop	0x404e29 <.rodata+0xe29>
  404e94: 90                           	nop
  404e95: e2 95                        	loop	0x404e2c <.rodata+0xe2c>
  404e97: 90                           	nop
  404e98: e2 95                        	loop	0x404e2f <.rodata+0xe2f>
  404e9a: 90                           	nop
  404e9b: e2 95                        	loop	0x404e32 <.rodata+0xe32>
  404e9d: 90                           	nop
  404e9e: e2 95                        	loop	0x404e35 <.rodata+0xe35>
  404ea0: 90                           	nop
  404ea1: e2 95                        	loop	0x404e38 <.rodata+0xe38>
  404ea3: 90                           	nop
  404ea4: e2 95                        	loop	0x404e3b <.rodata+0xe3b>
  404ea6: 90                           	nop
  404ea7: e2 95                        	loop	0x404e3e <.rodata+0xe3e>
  404ea9: 90                           	nop
  404eaa: e2 95                        	loop	0x404e41 <.rodata+0xe41>
  404eac: 90                           	nop
  404ead: e2 95                        	loop	0x404e44 <.rodata+0xe44>
  404eaf: 90                           	nop
  404eb0: e2 95                        	loop	0x404e47 <.rodata+0xe47>
  404eb2: 90                           	nop
  404eb3: e2 95                        	loop	0x404e4a <.rodata+0xe4a>
  404eb5: 90                           	nop
  404eb6: e2 95                        	loop	0x404e4d <.rodata+0xe4d>
  404eb8: 90                           	nop
  404eb9: e2 95                        	loop	0x404e50 <.rodata+0xe50>
  404ebb: 90                           	nop
  404ebc: e2 95                        	loop	0x404e53 <.rodata+0xe53>
  404ebe: 90                           	nop
  404ebf: e2 95                        	loop	0x404e56 <.rodata+0xe56>
  404ec1: 90                           	nop
  404ec2: e2 95                        	loop	0x404e59 <.rodata+0xe59>
  404ec4: 90                           	nop
  404ec5: e2 95                        	loop	0x404e5c <.rodata+0xe5c>
  404ec7: 90                           	nop
  404ec8: e2 95                        	loop	0x404e5f <.rodata+0xe5f>
  404eca: 90                           	nop
  404ecb: e2 95                        	loop	0x404e62 <.rodata+0xe62>
  404ecd: 90                           	nop
  404ece: e2 95                        	loop	0x404e65 <.rodata+0xe65>
  404ed0: 90                           	nop
  404ed1: e2 95                        	loop	0x404e68 <.rodata+0xe68>
  404ed3: 90                           	nop
  404ed4: e2 95                        	loop	0x404e6b <.rodata+0xe6b>
  404ed6: 90                           	nop
  404ed7: e2 95                        	loop	0x404e6e <.rodata+0xe6e>
  404ed9: 90                           	nop
  404eda: e2 95                        	loop	0x404e71 <.rodata+0xe71>
  404edc: 90                           	nop
  404edd: e2 95                        	loop	0x404e74 <.rodata+0xe74>
  404edf: 90                           	nop
  404ee0: e2 95                        	loop	0x404e77 <.rodata+0xe77>
  404ee2: 90                           	nop
  404ee3: e2 95                        	loop	0x404e7a <.rodata+0xe7a>
  404ee5: 90                           	nop
  404ee6: e2 95                        	loop	0x404e7d <.rodata+0xe7d>
  404ee8: 90                           	nop
  404ee9: e2 95                        	loop	0x404e80 <.rodata+0xe80>
  404eeb: 90                           	nop
  404eec: e2 95                        	loop	0x404e83 <.rodata+0xe83>
  404eee: 90                           	nop
  404eef: e2 95                        	loop	0x404e86 <.rodata+0xe86>
  404ef1: 90                           	nop
  404ef2: e2 95                        	loop	0x404e89 <.rodata+0xe89>
  404ef4: 90                           	nop
  404ef5: e2 95                        	loop	0x404e8c <.rodata+0xe8c>
  404ef7: 90                           	nop
  404ef8: e2 95                        	loop	0x404e8f <.rodata+0xe8f>
  404efa: 90                           	nop
  404efb: e2 95                        	loop	0x404e92 <.rodata+0xe92>
  404efd: 90                           	nop
  404efe: e2 95                        	loop	0x404e95 <.rodata+0xe95>
  404f00: 90                           	nop
  404f01: e2 95                        	loop	0x404e98 <.rodata+0xe98>
  404f03: 9d                           	popfq
  404f04: 0a 00                        	orb	(%rax), %al
  404f06: 20 4e 61                     	andb	%cl, 97(%rsi)
  404f09: 6d                           	insl	%dx, %es:(%rdi)
  404f0a: 65 20 3d 3e 20 00 e2         	andb	%bh, %gs:-503308226(%rip)
  404f11: 95                           	xchgl	%ebp, %eax
  404f12: 94                           	xchgl	%esp, %eax
  404f13: e2 95                        	loop	0x404eaa <.rodata+0xeaa>
  404f15: 90                           	nop
  404f16: e2 95                        	loop	0x404ead <.rodata+0xead>
  404f18: 90                           	nop
  404f19: e2 95                        	loop	0x404eb0 <.rodata+0xeb0>
  404f1b: 90                           	nop
  404f1c: e2 95                        	loop	0x404eb3 <.rodata+0xeb3>
  404f1e: 90                           	nop
  404f1f: e2 95                        	loop	0x404eb6 <.rodata+0xeb6>
  404f21: 90                           	nop
  404f22: e2 95                        	loop	0x404eb9 <.rodata+0xeb9>
  404f24: 90                           	nop
  404f25: e2 95                        	loop	0x404ebc <.rodata+0xebc>
  404f27: 90                           	nop
  404f28: e2 95                        	loop	0x404ebf <.rodata+0xebf>
  404f2a: 90                           	nop
  404f2b: e2 95                        	loop	0x404ec2 <.rodata+0xec2>
  404f2d: 90                           	nop
  404f2e: e2 95                        	loop	0x404ec5 <.rodata+0xec5>
  404f30: 90                           	nop
  404f31: e2 95                        	loop	0x404ec8 <.rodata+0xec8>
  404f33: 90                           	nop
  404f34: e2 95                        	loop	0x404ecb <.rodata+0xecb>
  404f36: 90                           	nop
  404f37: e2 95                        	loop	0x404ece <.rodata+0xece>
  404f39: 90                           	nop
  404f3a: e2 95                        	loop	0x404ed1 <.rodata+0xed1>
  404f3c: 90                           	nop
  404f3d: e2 95                        	loop	0x404ed4 <.rodata+0xed4>
  404f3f: 90                           	nop
  404f40: e2 95                        	loop	0x404ed7 <.rodata+0xed7>
  404f42: 90                           	nop
  404f43: e2 95                        	loop	0x404eda <.rodata+0xeda>
  404f45: 90                           	nop
  404f46: e2 95                        	loop	0x404edd <.rodata+0xedd>
  404f48: 90                           	nop
  404f49: e2 95                        	loop	0x404ee0 <.rodata+0xee0>
  404f4b: 90                           	nop
  404f4c: e2 95                        	loop	0x404ee3 <.rodata+0xee3>
  404f4e: 90                           	nop
  404f4f: e2 95                        	loop	0x404ee6 <.rodata+0xee6>
  404f51: 90                           	nop
  404f52: e2 95                        	loop	0x404ee9 <.rodata+0xee9>
  404f54: 90                           	nop
  404f55: e2 95                        	loop	0x404eec <.rodata+0xeec>
  404f57: 90                           	nop
  404f58: e2 95                        	loop	0x404eef <.rodata+0xeef>
  404f5a: 90                           	nop
  404f5b: e2 95                        	loop	0x404ef2 <.rodata+0xef2>
  404f5d: 90                           	nop
  404f5e: e2 95                        	loop	0x404ef5 <.rodata+0xef5>
  404f60: 90                           	nop
  404f61: e2 95                        	loop	0x404ef8 <.rodata+0xef8>
  404f63: 90                           	nop
  404f64: e2 95                        	loop	0x404efb <.rodata+0xefb>
  404f66: 90                           	nop
  404f67: e2 95                        	loop	0x404efe <.rodata+0xefe>
  404f69: 90                           	nop
  404f6a: e2 95                        	loop	0x404f01 <.rodata+0xf01>
  404f6c: 90                           	nop
  404f6d: e2 95                        	loop	0x404f04 <.rodata+0xf04>
  404f6f: 90                           	nop
  404f70: e2 95                        	loop	0x404f07 <.rodata+0xf07>
  404f72: 90                           	nop
  404f73: e2 95                        	loop	0x404f0a <.rodata+0xf0a>
  404f75: 90                           	nop
  404f76: e2 95                        	loop	0x404f0d <.rodata+0xf0d>
  404f78: 90                           	nop
  404f79: e2 95                        	loop	0x404f10 <.rodata+0xf10>
  404f7b: 90                           	nop
  404f7c: e2 95                        	loop	0x404f13 <.rodata+0xf13>
  404f7e: 90                           	nop
  404f7f: e2 95                        	loop	0x404f16 <.rodata+0xf16>
  404f81: 90                           	nop
  404f82: e2 95                        	loop	0x404f19 <.rodata+0xf19>
  404f84: 90                           	nop
  404f85: e2 95                        	loop	0x404f1c <.rodata+0xf1c>
  404f87: 90                           	nop
  404f88: e2 95                        	loop	0x404f1f <.rodata+0xf1f>
  404f8a: 90                           	nop
  404f8b: e2 95                        	loop	0x404f22 <.rodata+0xf22>
  404f8d: 90                           	nop
  404f8e: e2 95                        	loop	0x404f25 <.rodata+0xf25>
  404f90: 90                           	nop
  404f91: e2 95                        	loop	0x404f28 <.rodata+0xf28>
  404f93: 90                           	nop
  404f94: e2 95                        	loop	0x404f2b <.rodata+0xf2b>
  404f96: 90                           	nop
  404f97: e2 95                        	loop	0x404f2e <.rodata+0xf2e>
  404f99: 90                           	nop
  404f9a: e2 95                        	loop	0x404f31 <.rodata+0xf31>
  404f9c: 90                           	nop
  404f9d: e2 95                        	loop	0x404f34 <.rodata+0xf34>
  404f9f: 90                           	nop
  404fa0: e2 95                        	loop	0x404f37 <.rodata+0xf37>
  404fa2: 90                           	nop
  404fa3: e2 95                        	loop	0x404f3a <.rodata+0xf3a>
  404fa5: 90                           	nop
  404fa6: e2 95                        	loop	0x404f3d <.rodata+0xf3d>
  404fa8: 90                           	nop
  404fa9: e2 95                        	loop	0x404f40 <.rodata+0xf40>
  404fab: 90                           	nop
  404fac: e2 95                        	loop	0x404f43 <.rodata+0xf43>
  404fae: 90                           	nop
  404faf: e2 95                        	loop	0x404f46 <.rodata+0xf46>
  404fb1: 90                           	nop
  404fb2: e2 95                        	loop	0x404f49 <.rodata+0xf49>
  404fb4: 90                           	nop
  404fb5: e2 95                        	loop	0x404f4c <.rodata+0xf4c>
  404fb7: 90                           	nop
  404fb8: e2 95                        	loop	0x404f4f <.rodata+0xf4f>
  404fba: 90                           	nop
  404fbb: e2 95                        	loop	0x404f52 <.rodata+0xf52>
  404fbd: 97                           	xchgl	%edi, %eax
  404fbe: 0a e2                        	orb	%dl, %ah
  404fc0: 95                           	xchgl	%ebp, %eax
  404fc1: 91                           	xchgl	%ecx, %eax
  404fc2: 20 20                        	andb	%ah, (%rax)
  404fc4: 57                           	pushq	%rdi
  404fc5: 68 69 63 68 20               	pushq	$543712105              # imm = 0x20686369
  404fca: 70 61                        	jo	0x40502d <.rodata+0x102d>
  404fcc: 72 74                        	jb	0x405042 <.rodata+0x1042>
  404fce: 79 20                        	jns	0x404ff0 <.rodata+0xff0>
  404fd0: 6d                           	insl	%dx, %es:(%rdi)
  404fd1: 65 6d                        	insl	%dx, %es:(%rdi)
  404fd3: 62                           	<unknown>
  404fd4: 65 72 20                     	jb	0x404ff7 <.rodata+0xff7>
  404fd7: 77 6f                        	ja	0x405048 <.rodata+0x1048>
  404fd9: 75 6c                        	jne	0x405047 <.rodata+0x1047>
  404fdb: 64 20 79 6f                  	andb	%bh, %fs:111(%rcx)
  404fdf: 75 20                        	jne	0x405001 <.rodata+0x1001>
  404fe1: 6c                           	insb	%dx, %es:(%rdi)
  404fe2: 69 6b 65 20 74 6f 20         	imull	$544175136, 101(%rbx), %ebp # imm = 0x206F7420
  404fe9: 72 65                        	jb	0x405050 <.rodata+0x1050>
  404feb: 6e                           	outsb	(%rsi), %dx
  404fec: 61                           	<unknown>
  404fed: 6d                           	insl	%dx, %es:(%rdi)
  404fee: 65 3f                        	<unknown>
  404ff0: 20 20                        	andb	%ah, (%rax)
  404ff2: 20 20                        	andb	%ah, (%rax)
  404ff4: 20 20                        	andb	%ah, (%rax)
  404ff6: 20 20                        	andb	%ah, (%rax)
  404ff8: 20 20                        	andb	%ah, (%rax)
  404ffa: e2 95                        	loop	0x404f91 <.rodata+0xf91>
  404ffc: 91                           	xchgl	%ecx, %eax
  404ffd: 0a e2                        	orb	%dl, %ah
  404fff: 95                           	xchgl	%ebp, %eax
  405000: 9a                           	<unknown>
  405001: e2 95                        	loop	0x404f98 <.rodata+0xf98>
  405003: 90                           	nop
  405004: e2 95                        	loop	0x404f9b <.rodata+0xf9b>
  405006: 90                           	nop
  405007: e2 95                        	loop	0x404f9e <.rodata+0xf9e>
  405009: 90                           	nop
  40500a: e2 95                        	loop	0x404fa1 <.rodata+0xfa1>
  40500c: 90                           	nop
  40500d: e2 95                        	loop	0x404fa4 <.rodata+0xfa4>
  40500f: 90                           	nop
  405010: e2 95                        	loop	0x404fa7 <.rodata+0xfa7>
  405012: 90                           	nop
  405013: e2 95                        	loop	0x404faa <.rodata+0xfaa>
  405015: 90                           	nop
  405016: e2 95                        	loop	0x404fad <.rodata+0xfad>
  405018: 90                           	nop
  405019: e2 95                        	loop	0x404fb0 <.rodata+0xfb0>
  40501b: 90                           	nop
  40501c: e2 95                        	loop	0x404fb3 <.rodata+0xfb3>
  40501e: 90                           	nop
  40501f: e2 95                        	loop	0x404fb6 <.rodata+0xfb6>
  405021: 90                           	nop
  405022: e2 95                        	loop	0x404fb9 <.rodata+0xfb9>
  405024: 90                           	nop
  405025: e2 95                        	loop	0x404fbc <.rodata+0xfbc>
  405027: 90                           	nop
  405028: e2 95                        	loop	0x404fbf <.rodata+0xfbf>
  40502a: 90                           	nop
  40502b: e2 95                        	loop	0x404fc2 <.rodata+0xfc2>
  40502d: 90                           	nop
  40502e: e2 95                        	loop	0x404fc5 <.rodata+0xfc5>
  405030: 90                           	nop
  405031: e2 95                        	loop	0x404fc8 <.rodata+0xfc8>
  405033: 90                           	nop
  405034: e2 95                        	loop	0x404fcb <.rodata+0xfcb>
  405036: 90                           	nop
  405037: e2 95                        	loop	0x404fce <.rodata+0xfce>
  405039: 90                           	nop
  40503a: e2 95                        	loop	0x404fd1 <.rodata+0xfd1>
  40503c: 90                           	nop
  40503d: e2 95                        	loop	0x404fd4 <.rodata+0xfd4>
  40503f: 90                           	nop
  405040: e2 95                        	loop	0x404fd7 <.rodata+0xfd7>
  405042: 90                           	nop
  405043: e2 95                        	loop	0x404fda <.rodata+0xfda>
  405045: 90                           	nop
  405046: e2 95                        	loop	0x404fdd <.rodata+0xfdd>
  405048: 90                           	nop
  405049: e2 95                        	loop	0x404fe0 <.rodata+0xfe0>
  40504b: 90                           	nop
  40504c: e2 95                        	loop	0x404fe3 <.rodata+0xfe3>
  40504e: 90                           	nop
  40504f: e2 95                        	loop	0x404fe6 <.rodata+0xfe6>
  405051: 90                           	nop
  405052: e2 95                        	loop	0x404fe9 <.rodata+0xfe9>
  405054: 90                           	nop
  405055: e2 95                        	loop	0x404fec <.rodata+0xfec>
  405057: 90                           	nop
  405058: e2 95                        	loop	0x404fef <.rodata+0xfef>
  40505a: 90                           	nop
  40505b: e2 95                        	loop	0x404ff2 <.rodata+0xff2>
  40505d: 90                           	nop
  40505e: e2 95                        	loop	0x404ff5 <.rodata+0xff5>
  405060: 90                           	nop
  405061: e2 95                        	loop	0x404ff8 <.rodata+0xff8>
  405063: 90                           	nop
  405064: e2 95                        	loop	0x404ffb <.rodata+0xffb>
  405066: 90                           	nop
  405067: e2 95                        	loop	0x404ffe <.rodata+0xffe>
  405069: 90                           	nop
  40506a: e2 95                        	loop	0x405001 <.rodata+0x1001>
  40506c: 90                           	nop
  40506d: e2 95                        	loop	0x405004 <.rodata+0x1004>
  40506f: 90                           	nop
  405070: e2 95                        	loop	0x405007 <.rodata+0x1007>
  405072: 90                           	nop
  405073: e2 95                        	loop	0x40500a <.rodata+0x100a>
  405075: 90                           	nop
  405076: e2 95                        	loop	0x40500d <.rodata+0x100d>
  405078: 90                           	nop
  405079: e2 95                        	loop	0x405010 <.rodata+0x1010>
  40507b: 90                           	nop
  40507c: e2 95                        	loop	0x405013 <.rodata+0x1013>
  40507e: 90                           	nop
  40507f: e2 95                        	loop	0x405016 <.rodata+0x1016>
  405081: 90                           	nop
  405082: e2 95                        	loop	0x405019 <.rodata+0x1019>
  405084: 90                           	nop
  405085: e2 95                        	loop	0x40501c <.rodata+0x101c>
  405087: 90                           	nop
  405088: e2 95                        	loop	0x40501f <.rodata+0x101f>
  40508a: 90                           	nop
  40508b: e2 95                        	loop	0x405022 <.rodata+0x1022>
  40508d: 90                           	nop
  40508e: e2 95                        	loop	0x405025 <.rodata+0x1025>
  405090: 90                           	nop
  405091: e2 95                        	loop	0x405028 <.rodata+0x1028>
  405093: 90                           	nop
  405094: e2 95                        	loop	0x40502b <.rodata+0x102b>
  405096: 90                           	nop
  405097: e2 95                        	loop	0x40502e <.rodata+0x102e>
  405099: 90                           	nop
  40509a: e2 95                        	loop	0x405031 <.rodata+0x1031>
  40509c: 90                           	nop
  40509d: e2 95                        	loop	0x405034 <.rodata+0x1034>
  40509f: 90                           	nop
  4050a0: e2 95                        	loop	0x405037 <.rodata+0x1037>
  4050a2: 90                           	nop
  4050a3: e2 95                        	loop	0x40503a <.rodata+0x103a>
  4050a5: 90                           	nop
  4050a6: e2 95                        	loop	0x40503d <.rodata+0x103d>
  4050a8: 90                           	nop
  4050a9: e2 95                        	loop	0x405040 <.rodata+0x1040>
  4050ab: 9d                           	popfq
  4050ac: 0a 00                        	orb	(%rax), %al
  4050ae: 20 20                        	andb	%ah, (%rax)
  4050b0: 20 00                        	andb	%al, (%rax)
  4050b2: 2e 20 00                     	andb	%al, %cs:(%rax)
  4050b5: 20 43 68                     	andb	%al, 104(%rbx)
  4050b8: 6f                           	outsl	(%rsi), %dx
  4050b9: 69 63 65 20 3d 3e 20         	imull	$540949792, 101(%rbx), %esp # imm = 0x203E3D20
		...
  4050c8: e2 95                        	loop	0x40505f <.rodata+0x105f>
  4050ca: 94                           	xchgl	%esp, %eax
  4050cb: e2 95                        	loop	0x405062 <.rodata+0x1062>
  4050cd: 90                           	nop
  4050ce: e2 95                        	loop	0x405065 <.rodata+0x1065>
  4050d0: 90                           	nop
  4050d1: 20 47 55                     	andb	%al, 85(%rdi)
  4050d4: 49 4c                        	<unknown>
  4050d6: 44 20 51 55                  	andb	%r10b, 85(%rcx)
  4050da: 45 53                        	pushq	%r11
  4050dc: 54                           	pushq	%rsp
  4050dd: 20 42 4f                     	andb	%al, 79(%rdx)
  4050e0: 41 52                        	pushq	%r10
  4050e2: 44 20 e2                     	andb	%r12b, %dl
  4050e5: 95                           	xchgl	%ebp, %eax
  4050e6: 90                           	nop
  4050e7: e2 95                        	loop	0x40507e <.rodata+0x107e>
  4050e9: 90                           	nop
  4050ea: e2 95                        	loop	0x405081 <.rodata+0x1081>
  4050ec: 90                           	nop
  4050ed: e2 95                        	loop	0x405084 <.rodata+0x1084>
  4050ef: 90                           	nop
  4050f0: e2 95                        	loop	0x405087 <.rodata+0x1087>
  4050f2: 90                           	nop
  4050f3: e2 95                        	loop	0x40508a <.rodata+0x108a>
  4050f5: 90                           	nop
  4050f6: e2 95                        	loop	0x40508d <.rodata+0x108d>
  4050f8: 90                           	nop
  4050f9: e2 95                        	loop	0x405090 <.rodata+0x1090>
  4050fb: 90                           	nop
  4050fc: e2 95                        	loop	0x405093 <.rodata+0x1093>
  4050fe: 90                           	nop
  4050ff: e2 95                        	loop	0x405096 <.rodata+0x1096>
  405101: 90                           	nop
  405102: e2 95                        	loop	0x405099 <.rodata+0x1099>
  405104: 90                           	nop
  405105: e2 95                        	loop	0x40509c <.rodata+0x109c>
  405107: 90                           	nop
  405108: e2 95                        	loop	0x40509f <.rodata+0x109f>
  40510a: 90                           	nop
  40510b: e2 95                        	loop	0x4050a2 <.rodata+0x10a2>
  40510d: 90                           	nop
  40510e: e2 95                        	loop	0x4050a5 <.rodata+0x10a5>
  405110: 90                           	nop
  405111: e2 95                        	loop	0x4050a8 <.rodata+0x10a8>
  405113: 90                           	nop
  405114: e2 95                        	loop	0x4050ab <.rodata+0x10ab>
  405116: 90                           	nop
  405117: e2 95                        	loop	0x4050ae <.rodata+0x10ae>
  405119: 90                           	nop
  40511a: e2 95                        	loop	0x4050b1 <.rodata+0x10b1>
  40511c: 90                           	nop
  40511d: e2 95                        	loop	0x4050b4 <.rodata+0x10b4>
  40511f: 90                           	nop
  405120: e2 95                        	loop	0x4050b7 <.rodata+0x10b7>
  405122: 90                           	nop
  405123: e2 95                        	loop	0x4050ba <.rodata+0x10ba>
  405125: 90                           	nop
  405126: e2 95                        	loop	0x4050bd <.rodata+0x10bd>
  405128: 90                           	nop
  405129: e2 95                        	loop	0x4050c0 <.rodata+0x10c0>
  40512b: 90                           	nop
  40512c: e2 95                        	loop	0x4050c3 <.rodata+0x10c3>
  40512e: 90                           	nop
  40512f: e2 95                        	loop	0x4050c6 <.rodata+0x10c6>
  405131: 90                           	nop
  405132: e2 95                        	loop	0x4050c9 <.rodata+0x10c9>
  405134: 90                           	nop
  405135: e2 95                        	loop	0x4050cc <.rodata+0x10cc>
  405137: 90                           	nop
  405138: e2 95                        	loop	0x4050cf <.rodata+0x10cf>
  40513a: 90                           	nop
  40513b: e2 95                        	loop	0x4050d2 <.rodata+0x10d2>
  40513d: 90                           	nop
  40513e: e2 95                        	loop	0x4050d5 <.rodata+0x10d5>
  405140: 90                           	nop
  405141: e2 95                        	loop	0x4050d8 <.rodata+0x10d8>
  405143: 90                           	nop
  405144: e2 95                        	loop	0x4050db <.rodata+0x10db>
  405146: 90                           	nop
  405147: e2 95                        	loop	0x4050de <.rodata+0x10de>
  405149: 90                           	nop
  40514a: e2 95                        	loop	0x4050e1 <.rodata+0x10e1>
  40514c: 90                           	nop
  40514d: e2 95                        	loop	0x4050e4 <.rodata+0x10e4>
  40514f: 97                           	xchgl	%edi, %eax
  405150: 0a e2                        	orb	%dl, %ah
  405152: 95                           	xchgl	%ebp, %eax
  405153: 91                           	xchgl	%ecx, %eax
  405154: 20 20                        	andb	%ah, (%rax)
  405156: e2 94                        	loop	0x4050ec <.rodata+0x10ec>
  405158: 8c e2                        	movl	%fs, %edx
  40515a: 94                           	xchgl	%esp, %eax
  40515b: 80 e2 94                     	andb	$-108, %dl
  40515e: 80 e2 94                     	andb	$-108, %dl
  405161: 80 e2 94                     	andb	$-108, %dl
  405164: 80 e2 94                     	andb	$-108, %dl
  405167: 80 e2 94                     	andb	$-108, %dl
  40516a: 80 e2 94                     	andb	$-108, %dl
  40516d: 80 e2 94                     	andb	$-108, %dl
  405170: 80 e2 94                     	andb	$-108, %dl
  405173: 80 e2 94                     	andb	$-108, %dl
  405176: 80 e2 94                     	andb	$-108, %dl
  405179: 80 e2 94                     	andb	$-108, %dl
  40517c: 80 e2 94                     	andb	$-108, %dl
  40517f: 80 e2 94                     	andb	$-108, %dl
  405182: 80 e2 94                     	andb	$-108, %dl
  405185: 80 e2 94                     	andb	$-108, %dl
  405188: 80 e2 94                     	andb	$-108, %dl
  40518b: 80 e2 94                     	andb	$-108, %dl
  40518e: 80 e2 94                     	andb	$-108, %dl
  405191: 80 e2 94                     	andb	$-108, %dl
  405194: 80 e2 94                     	andb	$-108, %dl
  405197: 80 e2 94                     	andb	$-108, %dl
  40519a: 80 e2 94                     	andb	$-108, %dl
  40519d: 80 e2 94                     	andb	$-108, %dl
  4051a0: 80 e2 94                     	andb	$-108, %dl
  4051a3: 80 e2 94                     	andb	$-108, %dl
  4051a6: 80 e2 94                     	andb	$-108, %dl
  4051a9: 80 e2 94                     	andb	$-108, %dl
  4051ac: 80 e2 94                     	andb	$-108, %dl
  4051af: 80 e2 94                     	andb	$-108, %dl
  4051b2: 80 e2 94                     	andb	$-108, %dl
  4051b5: 80 e2 94                     	andb	$-108, %dl
  4051b8: 80 e2 94                     	andb	$-108, %dl
  4051bb: 80 e2 94                     	andb	$-108, %dl
  4051be: 80 e2 94                     	andb	$-108, %dl
  4051c1: 80 e2 94                     	andb	$-108, %dl
  4051c4: 80 e2 94                     	andb	$-108, %dl
  4051c7: 80 e2 94                     	andb	$-108, %dl
  4051ca: 80 e2 94                     	andb	$-108, %dl
  4051cd: 80 e2 94                     	andb	$-108, %dl
  4051d0: 80 e2 94                     	andb	$-108, %dl
  4051d3: 80 e2 94                     	andb	$-108, %dl
  4051d6: 80 e2 94                     	andb	$-108, %dl
  4051d9: 80 e2 94                     	andb	$-108, %dl
  4051dc: 80 e2 94                     	andb	$-108, %dl
  4051df: 80 e2 94                     	andb	$-108, %dl
  4051e2: 80 e2 94                     	andb	$-108, %dl
  4051e5: 80 e2 94                     	andb	$-108, %dl
  4051e8: 80 e2 94                     	andb	$-108, %dl
  4051eb: 80 e2 94                     	andb	$-108, %dl
  4051ee: 80 e2 94                     	andb	$-108, %dl
  4051f1: 90                           	nop
  4051f2: 20 20                        	andb	%ah, (%rax)
  4051f4: e2 95                        	loop	0x40518b <.rodata+0x118b>
  4051f6: 91                           	xchgl	%ecx, %eax
  4051f7: 0a e2                        	orb	%dl, %ah
  4051f9: 95                           	xchgl	%ebp, %eax
  4051fa: 91                           	xchgl	%ecx, %eax
  4051fb: 20 20                        	andb	%ah, (%rax)
  4051fd: e2 94                        	loop	0x405193 <.rodata+0x1193>
  4051ff: 82                           	<unknown>
  405200: 20 20                        	andb	%ah, (%rax)
  405202: e2 97                        	loop	0x40519b <.rodata+0x119b>
  405204: 8f 20 20                     	<unknown>
  405207: 20 20                        	andb	%ah, (%rax)
  405209: 20 20                        	andb	%ah, (%rax)
  40520b: 20 20                        	andb	%ah, (%rax)
  40520d: 20 20                        	andb	%ah, (%rax)
  40520f: 20 55 52                     	andb	%dl, 82(%rbp)
  405212: 47 45                        	<unknown>
  405214: 4e 54                        	pushq	%rsp
  405216: 20 48 45                     	andb	%cl, 69(%rax)
  405219: 4c 50                        	pushq	%rax
  40521b: 20 52 45                     	andb	%dl, 69(%rdx)
  40521e: 51                           	pushq	%rcx
  40521f: 55                           	pushq	%rbp
  405220: 49 52                        	pushq	%r10
  405222: 45 44                        	<unknown>
  405224: 21 20                        	andl	%esp, (%rax)
  405226: 20 20                        	andb	%ah, (%rax)
  405228: 20 20                        	andb	%ah, (%rax)
  40522a: 20 20                        	andb	%ah, (%rax)
  40522c: 20 20                        	andb	%ah, (%rax)
  40522e: 20 20                        	andb	%ah, (%rax)
  405230: 20 e2                        	andb	%ah, %dl
  405232: 97                           	xchgl	%edi, %eax
  405233: 8f 20 20                     	<unknown>
  405236: e2 94                        	loop	0x4051cc <.rodata+0x11cc>
  405238: 82                           	<unknown>
  405239: 20 20                        	andb	%ah, (%rax)
  40523b: e2 95                        	loop	0x4051d2 <.rodata+0x11d2>
  40523d: 91                           	xchgl	%ecx, %eax
  40523e: 0a e2                        	orb	%dl, %ah
  405240: 95                           	xchgl	%ebp, %eax
  405241: 91                           	xchgl	%ecx, %eax
  405242: 20 20                        	andb	%ah, (%rax)
  405244: e2 94                        	loop	0x4051da <.rodata+0x11da>
  405246: 82                           	<unknown>
  405247: 20 20                        	andb	%ah, (%rax)
  405249: 20 20                        	andb	%ah, (%rax)
  40524b: 20 20                        	andb	%ah, (%rax)
  40524d: 20 20                        	andb	%ah, (%rax)
  40524f: 20 20                        	andb	%ah, (%rax)
  405251: 20 20                        	andb	%ah, (%rax)
  405253: 20 20                        	andb	%ah, (%rax)
  405255: 20 20                        	andb	%ah, (%rax)
  405257: 20 20                        	andb	%ah, (%rax)
  405259: 20 20                        	andb	%ah, (%rax)
  40525b: 20 20                        	andb	%ah, (%rax)
  40525d: 20 20                        	andb	%ah, (%rax)
  40525f: 20 20                        	andb	%ah, (%rax)
  405261: 20 20                        	andb	%ah, (%rax)
  405263: 20 20                        	andb	%ah, (%rax)
  405265: 20 20                        	andb	%ah, (%rax)
  405267: 20 20                        	andb	%ah, (%rax)
  405269: 20 20                        	andb	%ah, (%rax)
  40526b: 20 20                        	andb	%ah, (%rax)
  40526d: 20 20                        	andb	%ah, (%rax)
  40526f: 20 20                        	andb	%ah, (%rax)
  405271: 20 20                        	andb	%ah, (%rax)
  405273: 20 20                        	andb	%ah, (%rax)
  405275: 20 20                        	andb	%ah, (%rax)
  405277: 20 20                        	andb	%ah, (%rax)
  405279: e2 94                        	loop	0x40520f <.rodata+0x120f>
  40527b: 82                           	<unknown>
  40527c: 20 20                        	andb	%ah, (%rax)
  40527e: e2 95                        	loop	0x405215 <.rodata+0x1215>
  405280: 91                           	xchgl	%ecx, %eax
  405281: 0a e2                        	orb	%dl, %ah
  405283: 95                           	xchgl	%ebp, %eax
  405284: 91                           	xchgl	%ecx, %eax
  405285: 20 20                        	andb	%ah, (%rax)
  405287: e2 94                        	loop	0x40521d <.rodata+0x121d>
  405289: 82                           	<unknown>
  40528a: 20 20                        	andb	%ah, (%rax)
  40528c: 52                           	pushq	%rdx
  40528d: 65 71 75                     	jno	0x405305 <.rodata+0x1305>
  405290: 69 72 65 6d 65 6e 74         	imull	$1953391981, 101(%rdx), %esi # imm = 0x746E656D
  405297: 73 3a                        	jae	0x4052d3 <.rodata+0x12d3>
  405299: 20 20                        	andb	%ah, (%rax)
  40529b: 20 20                        	andb	%ah, (%rax)
  40529d: 20 20                        	andb	%ah, (%rax)
  40529f: 20 20                        	andb	%ah, (%rax)
  4052a1: 20 20                        	andb	%ah, (%rax)
  4052a3: 20 20                        	andb	%ah, (%rax)
  4052a5: 20 20                        	andb	%ah, (%rax)
  4052a7: 20 20                        	andb	%ah, (%rax)
  4052a9: 20 20                        	andb	%ah, (%rax)
  4052ab: 20 20                        	andb	%ah, (%rax)
  4052ad: 20 20                        	andb	%ah, (%rax)
  4052af: 20 20                        	andb	%ah, (%rax)
  4052b1: 20 20                        	andb	%ah, (%rax)
  4052b3: 20 20                        	andb	%ah, (%rax)
  4052b5: 20 20                        	andb	%ah, (%rax)
  4052b7: 20 20                        	andb	%ah, (%rax)
  4052b9: 20 20                        	andb	%ah, (%rax)
  4052bb: 20 e2                        	andb	%ah, %dl
  4052bd: 94                           	xchgl	%esp, %eax
  4052be: 82                           	<unknown>
  4052bf: 20 20                        	andb	%ah, (%rax)
  4052c1: e2 95                        	loop	0x405258 <.rodata+0x1258>
  4052c3: 91                           	xchgl	%ecx, %eax
  4052c4: 0a e2                        	orb	%dl, %ah
  4052c6: 95                           	xchgl	%ebp, %eax
  4052c7: 91                           	xchgl	%ecx, %eax
  4052c8: 20 20                        	andb	%ah, (%rax)
  4052ca: e2 94                        	loop	0x405260 <.rodata+0x1260>
  4052cc: 82                           	<unknown>
  4052cd: 20 20                        	andb	%ah, (%rax)
  4052cf: 2d 20 41 74 20               	subl	$544489760, %eax        # imm = 0x20744120
  4052d4: 6c                           	insb	%dx, %es:(%rdi)
  4052d5: 65 61                        	<unknown>
  4052d7: 73 74                        	jae	0x40534d <.rodata+0x134d>
  4052d9: 20 6f 6e                     	andb	%ch, 110(%rdi)
  4052dc: 65 20 48 65                  	andb	%cl, %gs:101(%rax)
  4052e0: 72 6f                        	jb	0x405351 <.rodata+0x1351>
  4052e2: 20 69 6e                     	andb	%ch, 110(%rcx)
  4052e5: 20 70 61                     	andb	%dh, 97(%rax)
  4052e8: 72 74                        	jb	0x40535e <.rodata+0x135e>
  4052ea: 79 20                        	jns	0x40530c <.rodata+0x130c>
  4052ec: 20 20                        	andb	%ah, (%rax)
  4052ee: 20 20                        	andb	%ah, (%rax)
  4052f0: 20 20                        	andb	%ah, (%rax)
  4052f2: 20 20                        	andb	%ah, (%rax)
  4052f4: 20 20                        	andb	%ah, (%rax)
  4052f6: 20 20                        	andb	%ah, (%rax)
  4052f8: 20 20                        	andb	%ah, (%rax)
  4052fa: 20 20                        	andb	%ah, (%rax)
  4052fc: 20 20                        	andb	%ah, (%rax)
  4052fe: 20 e2                        	andb	%ah, %dl
  405300: 94                           	xchgl	%esp, %eax
  405301: 82                           	<unknown>
  405302: 20 20                        	andb	%ah, (%rax)
  405304: e2 95                        	loop	0x40529b <.rodata+0x129b>
  405306: 91                           	xchgl	%ecx, %eax
  405307: 0a e2                        	orb	%dl, %ah
  405309: 95                           	xchgl	%ebp, %eax
  40530a: 91                           	xchgl	%ecx, %eax
  40530b: 20 20                        	andb	%ah, (%rax)
  40530d: e2 94                        	loop	0x4052a3 <.rodata+0x12a3>
  40530f: 82                           	<unknown>
  405310: 20 20                        	andb	%ah, (%rax)
  405312: 2d 20 48 65 72               	subl	$1919240224, %eax       # imm = 0x72654820
  405317: 6f                           	outsl	(%rsi), %dx
  405318: 20 6d 75                     	andb	%ch, 117(%rbp)
  40531b: 73 74                        	jae	0x405391 <.rodata+0x1391>
  40531d: 20 68 61                     	andb	%ch, 97(%rax)
  405320: 76 65                        	jbe	0x405387 <.rodata+0x1387>
  405322: 20 61 74                     	andb	%ah, 116(%rcx)
  405325: 20 6c 65 61                  	andb	%ch, 97(%rbp,%riz,2)
  405329: 73 74                        	jae	0x40539f <.rodata+0x139f>
  40532b: 20 32                        	andb	%dh, (%rdx)
  40532d: 35 35 20 61 74               	xorl	$1952522293, %eax       # imm = 0x74612035
  405332: 74 61                        	je	0x405395 <.rodata+0x1395>
  405334: 63 6b 20                     	movslq	32(%rbx), %ebp
  405337: 20 20                        	andb	%ah, (%rax)
  405339: 20 20                        	andb	%ah, (%rax)
  40533b: 20 20                        	andb	%ah, (%rax)
  40533d: 20 20                        	andb	%ah, (%rax)
  40533f: 20 20                        	andb	%ah, (%rax)
  405341: 20 e2                        	andb	%ah, %dl
  405343: 94                           	xchgl	%esp, %eax
  405344: 82                           	<unknown>
  405345: 20 20                        	andb	%ah, (%rax)
  405347: e2 95                        	loop	0x4052de <.rodata+0x12de>
  405349: 91                           	xchgl	%ecx, %eax
  40534a: 0a e2                        	orb	%dl, %ah
  40534c: 95                           	xchgl	%ebp, %eax
  40534d: 91                           	xchgl	%ecx, %eax
  40534e: 20 20                        	andb	%ah, (%rax)
  405350: e2 94                        	loop	0x4052e6 <.rodata+0x12e6>
  405352: 82                           	<unknown>
  405353: 20 20                        	andb	%ah, (%rax)
  405355: 20 20                        	andb	%ah, (%rax)
  405357: 20 20                        	andb	%ah, (%rax)
  405359: 20 20                        	andb	%ah, (%rax)
  40535b: 20 20                        	andb	%ah, (%rax)
  40535d: 20 20                        	andb	%ah, (%rax)
  40535f: 20 20                        	andb	%ah, (%rax)
  405361: 20 20                        	andb	%ah, (%rax)
  405363: 20 20                        	andb	%ah, (%rax)
  405365: 20 20                        	andb	%ah, (%rax)
  405367: 20 20                        	andb	%ah, (%rax)
  405369: 20 20                        	andb	%ah, (%rax)
  40536b: 20 20                        	andb	%ah, (%rax)
  40536d: 20 20                        	andb	%ah, (%rax)
  40536f: 20 20                        	andb	%ah, (%rax)
  405371: 20 20                        	andb	%ah, (%rax)
  405373: 20 20                        	andb	%ah, (%rax)
  405375: 20 20                        	andb	%ah, (%rax)
  405377: 20 20                        	andb	%ah, (%rax)
  405379: 20 20                        	andb	%ah, (%rax)
  40537b: 20 20                        	andb	%ah, (%rax)
  40537d: 20 20                        	andb	%ah, (%rax)
  40537f: 20 20                        	andb	%ah, (%rax)
  405381: 20 20                        	andb	%ah, (%rax)
  405383: 20 20                        	andb	%ah, (%rax)
  405385: e2 94                        	loop	0x40531b <.rodata+0x131b>
  405387: 82                           	<unknown>
  405388: 20 20                        	andb	%ah, (%rax)
  40538a: e2 95                        	loop	0x405321 <.rodata+0x1321>
  40538c: 91                           	xchgl	%ecx, %eax
  40538d: 0a e2                        	orb	%dl, %ah
  40538f: 95                           	xchgl	%ebp, %eax
  405390: 91                           	xchgl	%ecx, %eax
  405391: 20 20                        	andb	%ah, (%rax)
  405393: e2 94                        	loop	0x405329 <.rodata+0x1329>
  405395: 82                           	<unknown>
  405396: 20 20                        	andb	%ah, (%rax)
  405398: 41 20 67 69                  	andb	%spl, 105(%r15)
  40539c: 61                           	<unknown>
  40539d: 6e                           	outsb	(%rsi), %dx
  40539e: 74 20                        	je	0x4053c0 <.rodata+0x13c0>
  4053a0: 66 72 6f                     	jb	0x405412 <.rodata+0x1412>
  4053a3: 67 20 72 65                  	andb	%dh, 101(%edx)
  4053a7: 63 65 6e                     	movslq	110(%rbp), %esp
  4053aa: 74 6c                        	je	0x405418 <.rodata+0x1418>
  4053ac: 79 20                        	jns	0x4053ce <.rodata+0x13ce>
  4053ae: 61                           	<unknown>
  4053af: 70 70                        	jo	0x405421 <.rodata+0x1421>
  4053b1: 65 61                        	<unknown>
  4053b3: 72 65                        	jb	0x40541a <.rodata+0x141a>
  4053b5: 64 20 69 6e                  	andb	%ch, %fs:110(%rcx)
  4053b9: 20 6f 75                     	andb	%ch, 117(%rdi)
  4053bc: 72 20                        	jb	0x4053de <.rodata+0x13de>
  4053be: 76 69                        	jbe	0x405429 <.rodata+0x1429>
  4053c0: 6c                           	insb	%dx, %es:(%rdi)
  4053c1: 6c                           	insb	%dx, %es:(%rdi)
  4053c2: 61                           	<unknown>
  4053c3: 67 65 20 20                  	andb	%ah, %gs:(%eax)
  4053c7: 20 e2                        	andb	%ah, %dl
  4053c9: 94                           	xchgl	%esp, %eax
  4053ca: 82                           	<unknown>
  4053cb: 20 20                        	andb	%ah, (%rax)
  4053cd: e2 95                        	loop	0x405364 <.rodata+0x1364>
  4053cf: 91                           	xchgl	%ecx, %eax
  4053d0: 0a e2                        	orb	%dl, %ah
  4053d2: 95                           	xchgl	%ebp, %eax
  4053d3: 91                           	xchgl	%ecx, %eax
  4053d4: 20 20                        	andb	%ah, (%rax)
  4053d6: e2 94                        	loop	0x40536c <.rodata+0x136c>
  4053d8: 82                           	<unknown>
  4053d9: 20 20                        	andb	%ah, (%rax)
  4053db: 61                           	<unknown>
  4053dc: 6e                           	outsb	(%rsi), %dx
  4053dd: 64 20 6b 69                  	andb	%ch, %fs:105(%rbx)
  4053e1: 64 6e                        	outsb	%fs:(%rsi), %dx
  4053e3: 61                           	<unknown>
  4053e4: 70 70                        	jo	0x405456 <.rodata+0x1456>
  4053e6: 65 64 20 6f 75               	andb	%ch, %fs:117(%rdi)
  4053eb: 72 20                        	jb	0x40540d <.rodata+0x140d>
  4053ed: 63 68 69                     	movslq	105(%rax), %ebp
  4053f0: 65 66 2e 20 57 65            	andb	%dl, %cs:101(%rdi)
  4053f6: 27                           	<unknown>
  4053f7: 72 65                        	jb	0x40545e <.rodata+0x145e>
  4053f9: 20 61 77                     	andb	%ah, 119(%rcx)
  4053fc: 61                           	<unknown>
  4053fd: 72 65                        	jb	0x405464 <.rodata+0x1464>
  4053ff: 20 6f 66                     	andb	%ch, 102(%rdi)
  405402: 20 74 68 65                  	andb	%dh, 101(%rax,%rbp,2)
  405406: 20 20                        	andb	%ah, (%rax)
  405408: 20 20                        	andb	%ah, (%rax)
  40540a: 20 e2                        	andb	%ah, %dl
  40540c: 94                           	xchgl	%esp, %eax
  40540d: 82                           	<unknown>
  40540e: 20 20                        	andb	%ah, (%rax)
  405410: e2 95                        	loop	0x4053a7 <.rodata+0x13a7>
  405412: 91                           	xchgl	%ecx, %eax
  405413: 0a e2                        	orb	%dl, %ah
  405415: 95                           	xchgl	%ebp, %eax
  405416: 91                           	xchgl	%ecx, %eax
  405417: 20 20                        	andb	%ah, (%rax)
  405419: e2 94                        	loop	0x4053af <.rodata+0x13af>
  40541b: 82                           	<unknown>
  40541c: 20 20                        	andb	%ah, (%rax)
  40541e: 6c                           	insb	%dx, %es:(%rdi)
  40541f: 6f                           	outsl	(%rsi), %dx
  405420: 63 61 74                     	movslq	116(%rcx), %esp
  405423: 69 6f 6e 20 6f 66 20         	imull	$543584032, 110(%rdi), %ebp # imm = 0x20666F20
  40542a: 69 74 27 73 20 68 69 64      	imull	$1684629536, 115(%rdi,%riz), %esi # imm = 0x64696820
  405432: 65 6f                        	outsl	%gs:(%rsi), %dx
  405434: 75 74                        	jne	0x4054aa <.rodata+0x14aa>
  405436: 20 62 75                     	andb	%ah, 117(%rdx)
  405439: 74 20                        	je	0x40545b <.rodata+0x145b>
  40543b: 69 74 27 73 20 73 69 6d      	imull	$1835627296, 115(%rdi,%riz), %esi # imm = 0x6D697320
  405443: 70 6c                        	jo	0x4054b1 <.rodata+0x14b1>
  405445: 79 20                        	jns	0x405467 <.rodata+0x1467>
  405447: 74 6f                        	je	0x4054b8 <.rodata+0x14b8>
  405449: 6f                           	outsl	(%rsi), %dx
  40544a: 20 20                        	andb	%ah, (%rax)
  40544c: 20 20                        	andb	%ah, (%rax)
  40544e: e2 94                        	loop	0x4053e4 <.rodata+0x13e4>
  405450: 82                           	<unknown>
  405451: 20 20                        	andb	%ah, (%rax)
  405453: e2 95                        	loop	0x4053ea <.rodata+0x13ea>
  405455: 91                           	xchgl	%ecx, %eax
  405456: 0a e2                        	orb	%dl, %ah
  405458: 95                           	xchgl	%ebp, %eax
  405459: 91                           	xchgl	%ecx, %eax
  40545a: 20 20                        	andb	%ah, (%rax)
  40545c: e2 94                        	loop	0x4053f2 <.rodata+0x13f2>
  40545e: 82                           	<unknown>
  40545f: 20 20                        	andb	%ah, (%rax)
  405461: 70 6f                        	jo	0x4054d2 <.rodata+0x14d2>
  405463: 77 65                        	ja	0x4054ca <.rodata+0x14ca>
  405465: 72 66                        	jb	0x4054cd <.rodata+0x14cd>
  405467: 75 6c                        	jne	0x4054d5 <.rodata+0x14d5>
  405469: 20 66 6f                     	andb	%ah, 111(%rsi)
  40546c: 72 20                        	jb	0x40548e <.rodata+0x148e>
  40546e: 75 73                        	jne	0x4054e3 <.rodata+0x14e3>
  405470: 20 74 6f 20                  	andb	%dh, 32(%rdi,%rbp,2)
  405474: 64 65 66 65 61               	<unknown>
  405479: 74 2e                        	je	0x4054a9 <.rodata+0x14a9>
  40547b: 20 50 6c                     	andb	%dl, 108(%rax)
  40547e: 65 61                        	<unknown>
  405480: 73 65                        	jae	0x4054e7 <.rodata+0x14e7>
  405482: 20 73 65                     	andb	%dh, 101(%rbx)
  405485: 6e                           	outsb	(%rsi), %dx
  405486: 64 20 68 65                  	andb	%ch, %fs:101(%rax)
  40548a: 6c                           	insb	%dx, %es:(%rdi)
  40548b: 70 21                        	jo	0x4054ae <.rodata+0x14ae>
  40548d: 20 20                        	andb	%ah, (%rax)
  40548f: 20 20                        	andb	%ah, (%rax)
  405491: e2 94                        	loop	0x405427 <.rodata+0x1427>
  405493: 82                           	<unknown>
  405494: 20 20                        	andb	%ah, (%rax)
  405496: e2 95                        	loop	0x40542d <.rodata+0x142d>
  405498: 91                           	xchgl	%ecx, %eax
  405499: 0a e2                        	orb	%dl, %ah
  40549b: 95                           	xchgl	%ebp, %eax
  40549c: 91                           	xchgl	%ecx, %eax
  40549d: 20 20                        	andb	%ah, (%rax)
  40549f: e2 94                        	loop	0x405435 <.rodata+0x1435>
  4054a1: 82                           	<unknown>
  4054a2: 20 20                        	andb	%ah, (%rax)
  4054a4: 57                           	pushq	%rdi
  4054a5: 65 20 61 72                  	andb	%ah, %gs:114(%rcx)
  4054a9: 65 20 64 65 73               	andb	%ah, %gs:115(%rbp,%riz,2)
  4054ae: 70 65                        	jo	0x405515 <.rodata+0x1515>
  4054b0: 72 61                        	jb	0x405513 <.rodata+0x1513>
  4054b2: 74 65                        	je	0x405519 <.rodata+0x1519>
  4054b4: 20 61 6e                     	andb	%ah, 110(%rcx)
  4054b7: 64 20 77 69                  	andb	%dh, %fs:105(%rdi)
  4054bb: 6c                           	insb	%dx, %es:(%rdi)
  4054bc: 6c                           	insb	%dx, %es:(%rdi)
  4054bd: 20 70 61                     	andb	%dh, 97(%rax)
  4054c0: 79 20                        	jns	0x4054e2 <.rodata+0x14e2>
  4054c2: 75 70                        	jne	0x405534 <.rodata+0x1534>
  4054c4: 66 72 6f                     	jb	0x405536 <.rodata+0x1536>
  4054c7: 6e                           	outsb	(%rsi), %dx
  4054c8: 74 2e                        	je	0x4054f8 <.rodata+0x14f8>
  4054ca: 20 20                        	andb	%ah, (%rax)
  4054cc: 20 20                        	andb	%ah, (%rax)
  4054ce: 20 20                        	andb	%ah, (%rax)
  4054d0: 20 20                        	andb	%ah, (%rax)
  4054d2: 20 20                        	andb	%ah, (%rax)
  4054d4: e2 94                        	loop	0x40546a <.rodata+0x146a>
  4054d6: 82                           	<unknown>
  4054d7: 20 20                        	andb	%ah, (%rax)
  4054d9: e2 95                        	loop	0x405470 <.rodata+0x1470>
  4054db: 91                           	xchgl	%ecx, %eax
  4054dc: 0a e2                        	orb	%dl, %ah
  4054de: 95                           	xchgl	%ebp, %eax
  4054df: 91                           	xchgl	%ecx, %eax
  4054e0: 20 20                        	andb	%ah, (%rax)
  4054e2: e2 94                        	loop	0x405478 <.rodata+0x1478>
  4054e4: 82                           	<unknown>
  4054e5: 20 20                        	andb	%ah, (%rax)
  4054e7: 20 20                        	andb	%ah, (%rax)
  4054e9: 20 20                        	andb	%ah, (%rax)
  4054eb: 20 20                        	andb	%ah, (%rax)
  4054ed: 20 20                        	andb	%ah, (%rax)
  4054ef: 20 20                        	andb	%ah, (%rax)
  4054f1: 20 20                        	andb	%ah, (%rax)
  4054f3: 20 20                        	andb	%ah, (%rax)
  4054f5: 20 20                        	andb	%ah, (%rax)
  4054f7: 20 20                        	andb	%ah, (%rax)
  4054f9: 20 20                        	andb	%ah, (%rax)
  4054fb: 20 20                        	andb	%ah, (%rax)
  4054fd: 20 20                        	andb	%ah, (%rax)
  4054ff: 20 20                        	andb	%ah, (%rax)
  405501: 20 20                        	andb	%ah, (%rax)
  405503: 20 20                        	andb	%ah, (%rax)
  405505: 20 20                        	andb	%ah, (%rax)
  405507: 20 20                        	andb	%ah, (%rax)
  405509: 20 20                        	andb	%ah, (%rax)
  40550b: 20 20                        	andb	%ah, (%rax)
  40550d: 20 20                        	andb	%ah, (%rax)
  40550f: 20 20                        	andb	%ah, (%rax)
  405511: 20 20                        	andb	%ah, (%rax)
  405513: 20 20                        	andb	%ah, (%rax)
  405515: 20 20                        	andb	%ah, (%rax)
  405517: e2 94                        	loop	0x4054ad <.rodata+0x14ad>
  405519: 82                           	<unknown>
  40551a: 20 20                        	andb	%ah, (%rax)
  40551c: e2 95                        	loop	0x4054b3 <.rodata+0x14b3>
  40551e: 91                           	xchgl	%ecx, %eax
  40551f: 0a e2                        	orb	%dl, %ah
  405521: 95                           	xchgl	%ebp, %eax
  405522: 91                           	xchgl	%ecx, %eax
  405523: 20 20                        	andb	%ah, (%rax)
  405525: e2 94                        	loop	0x4054bb <.rodata+0x14bb>
  405527: 82                           	<unknown>
  405528: 20 20                        	andb	%ah, (%rax)
  40552a: 52                           	pushq	%rdx
  40552b: 65 77 61                     	ja	0x40558f <.rodata+0x158f>
  40552e: 72 64                        	jb	0x405594 <.rodata+0x1594>
  405530: 3a 20                        	cmpb	(%rax), %ah
  405532: 20 20                        	andb	%ah, (%rax)
  405534: 20 20                        	andb	%ah, (%rax)
  405536: 20 20                        	andb	%ah, (%rax)
  405538: 20 20                        	andb	%ah, (%rax)
  40553a: 20 20                        	andb	%ah, (%rax)
  40553c: 20 20                        	andb	%ah, (%rax)
  40553e: 20 20                        	andb	%ah, (%rax)
  405540: 20 20                        	andb	%ah, (%rax)
  405542: 20 20                        	andb	%ah, (%rax)
  405544: 20 20                        	andb	%ah, (%rax)
  405546: 20 20                        	andb	%ah, (%rax)
  405548: 20 20                        	andb	%ah, (%rax)
  40554a: 20 20                        	andb	%ah, (%rax)
  40554c: 20 20                        	andb	%ah, (%rax)
  40554e: 20 20                        	andb	%ah, (%rax)
  405550: 20 20                        	andb	%ah, (%rax)
  405552: 20 20                        	andb	%ah, (%rax)
  405554: 20 20                        	andb	%ah, (%rax)
  405556: 20 20                        	andb	%ah, (%rax)
  405558: 20 20                        	andb	%ah, (%rax)
  40555a: e2 94                        	loop	0x4054f0 <.rodata+0x14f0>
  40555c: 82                           	<unknown>
  40555d: 20 20                        	andb	%ah, (%rax)
  40555f: e2 95                        	loop	0x4054f6 <.rodata+0x14f6>
  405561: 91                           	xchgl	%ecx, %eax
  405562: 0a e2                        	orb	%dl, %ah
  405564: 95                           	xchgl	%ebp, %eax
  405565: 91                           	xchgl	%ecx, %eax
  405566: 20 20                        	andb	%ah, (%rax)
  405568: e2 94                        	loop	0x4054fe <.rodata+0x14fe>
  40556a: 82                           	<unknown>
  40556b: 20 20                        	andb	%ah, (%rax)
  40556d: 2d 20 46 6c 61               	subl	$1634485792, %eax       # imm = 0x616C4620
  405572: 67 20 20                     	andb	%ah, (%eax)
  405575: 20 20                        	andb	%ah, (%rax)
  405577: 20 20                        	andb	%ah, (%rax)
  405579: 20 20                        	andb	%ah, (%rax)
  40557b: 20 20                        	andb	%ah, (%rax)
  40557d: 20 20                        	andb	%ah, (%rax)
  40557f: 20 20                        	andb	%ah, (%rax)
  405581: 20 20                        	andb	%ah, (%rax)
  405583: 20 20                        	andb	%ah, (%rax)
  405585: 20 20                        	andb	%ah, (%rax)
  405587: 20 20                        	andb	%ah, (%rax)
  405589: 20 20                        	andb	%ah, (%rax)
  40558b: 20 20                        	andb	%ah, (%rax)
  40558d: 20 20                        	andb	%ah, (%rax)
  40558f: 20 20                        	andb	%ah, (%rax)
  405591: 20 20                        	andb	%ah, (%rax)
  405593: 20 20                        	andb	%ah, (%rax)
  405595: 20 20                        	andb	%ah, (%rax)
  405597: 20 20                        	andb	%ah, (%rax)
  405599: 20 20                        	andb	%ah, (%rax)
  40559b: 20 20                        	andb	%ah, (%rax)
  40559d: e2 94                        	loop	0x405533 <.rodata+0x1533>
  40559f: 82                           	<unknown>
  4055a0: 20 20                        	andb	%ah, (%rax)
  4055a2: e2 95                        	loop	0x405539 <.rodata+0x1539>
  4055a4: 91                           	xchgl	%ecx, %eax
  4055a5: 0a e2                        	orb	%dl, %ah
  4055a7: 95                           	xchgl	%ebp, %eax
  4055a8: 91                           	xchgl	%ecx, %eax
  4055a9: 20 20                        	andb	%ah, (%rax)
  4055ab: e2 94                        	loop	0x405541 <.rodata+0x1541>
  4055ad: 82                           	<unknown>
  4055ae: 20 20                        	andb	%ah, (%rax)
  4055b0: 20 20                        	andb	%ah, (%rax)
  4055b2: 20 20                        	andb	%ah, (%rax)
  4055b4: 20 20                        	andb	%ah, (%rax)
  4055b6: 20 20                        	andb	%ah, (%rax)
  4055b8: 20 20                        	andb	%ah, (%rax)
  4055ba: 20 20                        	andb	%ah, (%rax)
  4055bc: 20 20                        	andb	%ah, (%rax)
  4055be: 20 20                        	andb	%ah, (%rax)
  4055c0: 20 20                        	andb	%ah, (%rax)
  4055c2: 20 20                        	andb	%ah, (%rax)
  4055c4: 20 20                        	andb	%ah, (%rax)
  4055c6: 20 20                        	andb	%ah, (%rax)
  4055c8: 20 20                        	andb	%ah, (%rax)
  4055ca: 20 20                        	andb	%ah, (%rax)
  4055cc: 20 20                        	andb	%ah, (%rax)
  4055ce: 20 20                        	andb	%ah, (%rax)
  4055d0: 20 20                        	andb	%ah, (%rax)
  4055d2: 20 20                        	andb	%ah, (%rax)
  4055d4: 20 20                        	andb	%ah, (%rax)
  4055d6: 20 20                        	andb	%ah, (%rax)
  4055d8: 20 20                        	andb	%ah, (%rax)
  4055da: 20 20                        	andb	%ah, (%rax)
  4055dc: 20 20                        	andb	%ah, (%rax)
  4055de: 20 20                        	andb	%ah, (%rax)
  4055e0: e2 94                        	loop	0x405576 <.rodata+0x1576>
  4055e2: 82                           	<unknown>
  4055e3: 20 20                        	andb	%ah, (%rax)
  4055e5: e2 95                        	loop	0x40557c <.rodata+0x157c>
  4055e7: 91                           	xchgl	%ecx, %eax
  4055e8: 0a e2                        	orb	%dl, %ah
  4055ea: 95                           	xchgl	%ebp, %eax
  4055eb: 91                           	xchgl	%ecx, %eax
  4055ec: 20 20                        	andb	%ah, (%rax)
  4055ee: e2 94                        	loop	0x405584 <.rodata+0x1584>
  4055f0: 82                           	<unknown>
  4055f1: 20 20                        	andb	%ah, (%rax)
  4055f3: e2 97                        	loop	0x40558c <.rodata+0x158c>
  4055f5: 8f 20 20                     	<unknown>
  4055f8: 20 20                        	andb	%ah, (%rax)
  4055fa: 20 20                        	andb	%ah, (%rax)
  4055fc: 20 20                        	andb	%ah, (%rax)
  4055fe: 20 20                        	andb	%ah, (%rax)
  405600: 20 20                        	andb	%ah, (%rax)
  405602: 20 20                        	andb	%ah, (%rax)
  405604: 20 20                        	andb	%ah, (%rax)
  405606: 20 20                        	andb	%ah, (%rax)
  405608: 20 20                        	andb	%ah, (%rax)
  40560a: 20 20                        	andb	%ah, (%rax)
  40560c: 20 20                        	andb	%ah, (%rax)
  40560e: 20 20                        	andb	%ah, (%rax)
  405610: 20 20                        	andb	%ah, (%rax)
  405612: 20 20                        	andb	%ah, (%rax)
  405614: 20 20                        	andb	%ah, (%rax)
  405616: 20 20                        	andb	%ah, (%rax)
  405618: 20 20                        	andb	%ah, (%rax)
  40561a: 20 20                        	andb	%ah, (%rax)
  40561c: 20 20                        	andb	%ah, (%rax)
  40561e: 20 20                        	andb	%ah, (%rax)
  405620: 20 20                        	andb	%ah, (%rax)
  405622: e2 97                        	loop	0x4055bb <.rodata+0x15bb>
  405624: 8f 20 20                     	<unknown>
  405627: e2 94                        	loop	0x4055bd <.rodata+0x15bd>
  405629: 82                           	<unknown>
  40562a: 20 20                        	andb	%ah, (%rax)
  40562c: e2 95                        	loop	0x4055c3 <.rodata+0x15c3>
  40562e: 91                           	xchgl	%ecx, %eax
  40562f: 0a e2                        	orb	%dl, %ah
  405631: 95                           	xchgl	%ebp, %eax
  405632: 91                           	xchgl	%ecx, %eax
  405633: 20 20                        	andb	%ah, (%rax)
  405635: e2 94                        	loop	0x4055cb <.rodata+0x15cb>
  405637: 94                           	xchgl	%esp, %eax
  405638: e2 94                        	loop	0x4055ce <.rodata+0x15ce>
  40563a: 80 e2 94                     	andb	$-108, %dl
  40563d: 80 e2 94                     	andb	$-108, %dl
  405640: 80 e2 94                     	andb	$-108, %dl
  405643: 80 e2 94                     	andb	$-108, %dl
  405646: 80 e2 94                     	andb	$-108, %dl
  405649: 80 e2 94                     	andb	$-108, %dl
  40564c: 80 e2 94                     	andb	$-108, %dl
  40564f: 80 e2 94                     	andb	$-108, %dl
  405652: 80 e2 94                     	andb	$-108, %dl
  405655: 80 e2 94                     	andb	$-108, %dl
  405658: 80 e2 94                     	andb	$-108, %dl
  40565b: 80 e2 94                     	andb	$-108, %dl
  40565e: 80 e2 94                     	andb	$-108, %dl
  405661: 80 e2 94                     	andb	$-108, %dl
  405664: 80 e2 94                     	andb	$-108, %dl
  405667: 80 e2 94                     	andb	$-108, %dl
  40566a: 80 e2 94                     	andb	$-108, %dl
  40566d: 80 e2 94                     	andb	$-108, %dl
  405670: 80 e2 94                     	andb	$-108, %dl
  405673: 80 e2 94                     	andb	$-108, %dl
  405676: 80 e2 94                     	andb	$-108, %dl
  405679: 80 e2 94                     	andb	$-108, %dl
  40567c: 80 e2 94                     	andb	$-108, %dl
  40567f: 80 e2 94                     	andb	$-108, %dl
  405682: 80 e2 94                     	andb	$-108, %dl
  405685: 80 e2 94                     	andb	$-108, %dl
  405688: 80 e2 94                     	andb	$-108, %dl
  40568b: 80 e2 94                     	andb	$-108, %dl
  40568e: 80 e2 94                     	andb	$-108, %dl
  405691: 80 e2 94                     	andb	$-108, %dl
  405694: 80 e2 94                     	andb	$-108, %dl
  405697: 80 e2 94                     	andb	$-108, %dl
  40569a: 80 e2 94                     	andb	$-108, %dl
  40569d: 80 e2 94                     	andb	$-108, %dl
  4056a0: 80 e2 94                     	andb	$-108, %dl
  4056a3: 80 e2 94                     	andb	$-108, %dl
  4056a6: 80 e2 94                     	andb	$-108, %dl
  4056a9: 80 e2 94                     	andb	$-108, %dl
  4056ac: 80 e2 94                     	andb	$-108, %dl
  4056af: 80 e2 94                     	andb	$-108, %dl
  4056b2: 80 e2 94                     	andb	$-108, %dl
  4056b5: 80 e2 94                     	andb	$-108, %dl
  4056b8: 80 e2 94                     	andb	$-108, %dl
  4056bb: 80 e2 94                     	andb	$-108, %dl
  4056be: 80 e2 94                     	andb	$-108, %dl
  4056c1: 80 e2 94                     	andb	$-108, %dl
  4056c4: 80 e2 94                     	andb	$-108, %dl
  4056c7: 80 e2 94                     	andb	$-108, %dl
  4056ca: 80 e2 94                     	andb	$-108, %dl
  4056cd: 80 e2 94                     	andb	$-108, %dl
  4056d0: 98                           	cwtl
  4056d1: 20 20                        	andb	%ah, (%rax)
  4056d3: e2 95                        	loop	0x40566a <.rodata+0x166a>
  4056d5: 91                           	xchgl	%ecx, %eax
  4056d6: 0a e2                        	orb	%dl, %ah
  4056d8: 95                           	xchgl	%ebp, %eax
  4056d9: 9a                           	<unknown>
  4056da: e2 95                        	loop	0x405671 <.rodata+0x1671>
  4056dc: 90                           	nop
  4056dd: e2 95                        	loop	0x405674 <.rodata+0x1674>
  4056df: 90                           	nop
  4056e0: e2 95                        	loop	0x405677 <.rodata+0x1677>
  4056e2: 90                           	nop
  4056e3: e2 95                        	loop	0x40567a <.rodata+0x167a>
  4056e5: 90                           	nop
  4056e6: e2 95                        	loop	0x40567d <.rodata+0x167d>
  4056e8: 90                           	nop
  4056e9: e2 95                        	loop	0x405680 <.rodata+0x1680>
  4056eb: 90                           	nop
  4056ec: e2 95                        	loop	0x405683 <.rodata+0x1683>
  4056ee: 90                           	nop
  4056ef: e2 95                        	loop	0x405686 <.rodata+0x1686>
  4056f1: 90                           	nop
  4056f2: e2 95                        	loop	0x405689 <.rodata+0x1689>
  4056f4: 90                           	nop
  4056f5: e2 95                        	loop	0x40568c <.rodata+0x168c>
  4056f7: 90                           	nop
  4056f8: e2 95                        	loop	0x40568f <.rodata+0x168f>
  4056fa: 90                           	nop
  4056fb: e2 95                        	loop	0x405692 <.rodata+0x1692>
  4056fd: 90                           	nop
  4056fe: e2 95                        	loop	0x405695 <.rodata+0x1695>
  405700: 90                           	nop
  405701: e2 95                        	loop	0x405698 <.rodata+0x1698>
  405703: 90                           	nop
  405704: e2 95                        	loop	0x40569b <.rodata+0x169b>
  405706: 90                           	nop
  405707: e2 95                        	loop	0x40569e <.rodata+0x169e>
  405709: 90                           	nop
  40570a: e2 95                        	loop	0x4056a1 <.rodata+0x16a1>
  40570c: 90                           	nop
  40570d: e2 95                        	loop	0x4056a4 <.rodata+0x16a4>
  40570f: 90                           	nop
  405710: e2 95                        	loop	0x4056a7 <.rodata+0x16a7>
  405712: 90                           	nop
  405713: e2 95                        	loop	0x4056aa <.rodata+0x16aa>
  405715: 90                           	nop
  405716: e2 95                        	loop	0x4056ad <.rodata+0x16ad>
  405718: 90                           	nop
  405719: e2 95                        	loop	0x4056b0 <.rodata+0x16b0>
  40571b: 90                           	nop
  40571c: e2 95                        	loop	0x4056b3 <.rodata+0x16b3>
  40571e: 90                           	nop
  40571f: e2 95                        	loop	0x4056b6 <.rodata+0x16b6>
  405721: 90                           	nop
  405722: e2 95                        	loop	0x4056b9 <.rodata+0x16b9>
  405724: 90                           	nop
  405725: e2 95                        	loop	0x4056bc <.rodata+0x16bc>
  405727: 90                           	nop
  405728: e2 95                        	loop	0x4056bf <.rodata+0x16bf>
  40572a: 90                           	nop
  40572b: e2 95                        	loop	0x4056c2 <.rodata+0x16c2>
  40572d: 90                           	nop
  40572e: e2 95                        	loop	0x4056c5 <.rodata+0x16c5>
  405730: 90                           	nop
  405731: e2 95                        	loop	0x4056c8 <.rodata+0x16c8>
  405733: 90                           	nop
  405734: e2 95                        	loop	0x4056cb <.rodata+0x16cb>
  405736: 90                           	nop
  405737: e2 95                        	loop	0x4056ce <.rodata+0x16ce>
  405739: 90                           	nop
  40573a: e2 95                        	loop	0x4056d1 <.rodata+0x16d1>
  40573c: 90                           	nop
  40573d: e2 95                        	loop	0x4056d4 <.rodata+0x16d4>
  40573f: 90                           	nop
  405740: e2 95                        	loop	0x4056d7 <.rodata+0x16d7>
  405742: 90                           	nop
  405743: e2 95                        	loop	0x4056da <.rodata+0x16da>
  405745: 90                           	nop
  405746: e2 95                        	loop	0x4056dd <.rodata+0x16dd>
  405748: 90                           	nop
  405749: e2 95                        	loop	0x4056e0 <.rodata+0x16e0>
  40574b: 90                           	nop
  40574c: e2 95                        	loop	0x4056e3 <.rodata+0x16e3>
  40574e: 90                           	nop
  40574f: e2 95                        	loop	0x4056e6 <.rodata+0x16e6>
  405751: 90                           	nop
  405752: e2 95                        	loop	0x4056e9 <.rodata+0x16e9>
  405754: 90                           	nop
  405755: e2 95                        	loop	0x4056ec <.rodata+0x16ec>
  405757: 90                           	nop
  405758: e2 95                        	loop	0x4056ef <.rodata+0x16ef>
  40575a: 90                           	nop
  40575b: e2 95                        	loop	0x4056f2 <.rodata+0x16f2>
  40575d: 90                           	nop
  40575e: e2 95                        	loop	0x4056f5 <.rodata+0x16f5>
  405760: 90                           	nop
  405761: e2 95                        	loop	0x4056f8 <.rodata+0x16f8>
  405763: 90                           	nop
  405764: e2 95                        	loop	0x4056fb <.rodata+0x16fb>
  405766: 90                           	nop
  405767: e2 95                        	loop	0x4056fe <.rodata+0x16fe>
  405769: 90                           	nop
  40576a: e2 95                        	loop	0x405701 <.rodata+0x1701>
  40576c: 90                           	nop
  40576d: e2 95                        	loop	0x405704 <.rodata+0x1704>
  40576f: 90                           	nop
  405770: e2 95                        	loop	0x405707 <.rodata+0x1707>
  405772: 90                           	nop
  405773: e2 95                        	loop	0x40570a <.rodata+0x170a>
  405775: 90                           	nop
  405776: e2 95                        	loop	0x40570d <.rodata+0x170d>
  405778: 90                           	nop
  405779: e2 95                        	loop	0x405710 <.rodata+0x1710>
  40577b: 90                           	nop
  40577c: e2 95                        	loop	0x405713 <.rodata+0x1713>
  40577e: 90                           	nop
  40577f: e2 95                        	loop	0x405716 <.rodata+0x1716>
  405781: 90                           	nop
  405782: e2 95                        	loop	0x405719 <.rodata+0x1719>
  405784: 9d                           	popfq
  405785: 0a 00                        	orb	(%rax), %al
  405787: 00 20                        	addb	%ah, (%rax)
  405789: 20 20                        	andb	%ah, (%rax)
  40578b: 5b                           	popq	%rbx
  40578c: 20 59 4f                     	andb	%bl, 79(%rcx)
  40578f: 55                           	pushq	%rbp
  405790: 52                           	pushq	%rdx
  405791: 20 50 41                     	andb	%dl, 65(%rax)
  405794: 52                           	pushq	%rdx
  405795: 54                           	pushq	%rsp
  405796: 59                           	popq	%rcx
  405797: 20 41 43                     	andb	%al, 67(%rcx)
  40579a: 43 45                        	<unknown>
  40579c: 50                           	pushq	%rax
  40579d: 54                           	pushq	%rsp
  40579e: 45 44                        	<unknown>
  4057a0: 20 54 48 45                  	andb	%dl, 69(%rax,%rcx,2)
  4057a4: 20 51 55                     	andb	%dl, 85(%rcx)
  4057a7: 45 53                        	pushq	%r11
  4057a9: 54                           	pushq	%rsp
  4057aa: 20 5d 00                     	andb	%bl, (%rbp)
  4057ad: 00 00                        	addb	%al, (%rax)
  4057af: 00 2f                        	addb	%ch, (%rdi)
  4057b1: 68 6f 6d 65 2f               	pushq	$795176303              # imm = 0x2F656D6F
  4057b6: 61                           	<unknown>
  4057b7: 64 76 65                     	jbe	0x40581f
  4057ba: 6e                           	outsb	(%rsi), %dx
  4057bb: 74 75                        	je	0x405832
  4057bd: 72 65                        	jb	0x405824
  4057bf: 72 73                        	jb	0x405834
  4057c1: 5f                           	popq	%rdi
  4057c2: 67 75 69                     	jne	0x40582e
  4057c5: 6c                           	insb	%dx, %es:(%rdi)
  4057c6: 64 2f                        	<unknown>
  4057c8: 66 6c                        	insb	%dx, %es:(%rdi)
  4057ca: 61                           	<unknown>
  4057cb: 67 2e 74 78                  	je	0x405847
  4057cf: 74 00                        	je	0x4057d1 <.rodata+0x17d1>
  4057d1: 20 20                        	andb	%ah, (%rax)
  4057d3: 46 6c                        	insb	%dx, %es:(%rdi)
  4057d5: 61                           	<unknown>
  4057d6: 67 3a 20                     	cmpb	(%eax), %ah
  4057d9: 00 00                        	addb	%al, (%rax)
  4057db: 00 00                        	addb	%al, (%rax)
  4057dd: 00 00                        	addb	%al, (%rax)
  4057df: 00 20                        	addb	%ah, (%rax)
  4057e1: 20 20                        	andb	%ah, (%rax)
  4057e3: 5b                           	popq	%rbx
  4057e4: 20 59 4f                     	andb	%bl, 79(%rcx)
  4057e7: 55                           	pushq	%rbp
  4057e8: 52                           	pushq	%rdx
  4057e9: 20 50 41                     	andb	%dl, 65(%rax)
  4057ec: 52                           	pushq	%rdx
  4057ed: 54                           	pushq	%rsp
  4057ee: 59                           	popq	%rcx
  4057ef: 20 44 4f 45                  	andb	%al, 69(%rdi,%rcx,2)
  4057f3: 53                           	pushq	%rbx
  4057f4: 20 4e 4f                     	andb	%cl, 79(%rsi)
  4057f7: 54                           	pushq	%rsp
  4057f8: 20 4d 45                     	andb	%cl, 69(%rbp)
  4057fb: 45 54                        	pushq	%r12
  4057fd: 20 54 48 45                  	andb	%dl, 69(%rax,%rcx,2)
  405801: 20 51 55                     	andb	%dl, 85(%rcx)
  405804: 45 53                        	pushq	%r11
  405806: 54                           	pushq	%rsp
  405807: 20 52 45                     	andb	%dl, 69(%rdx)
  40580a: 51                           	pushq	%rcx
  40580b: 55                           	pushq	%rbp
  40580c: 49 52                        	pushq	%r10
  40580e: 45 4d                        	<unknown>
  405810: 45 4e                        	<unknown>
  405812: 54                           	pushq	%rsp
  405813: 53                           	pushq	%rbx
  405814: 21 20                        	andl	%esp, (%rax)
  405816: 5d                           	popq	%rbp
  405817: 00                           	<unknown>


0000000000405818 <.eh_frame_hdr>:
  405818: 01 1b                        	addl	%ebx, (%rbx)
  40581a: 03 3b                        	addl	(%rbx), %edi
  40581c: dc 01                        	faddl	(%rcx)
  40581e: 00 00                        	addb	%al, (%rax)
  405820: 3a 00                        	cmpb	(%rax), %al
  405822: 00 00                        	addb	%al, (%rax)
  405824: 08 c8                        	orb	%cl, %al
  405826: ff ff                        	<unknown>
  405828: 20 02                        	andb	%al, (%rdx)
  40582a: 00 00                        	addb	%al, (%rax)
  40582c: f8                           	clc
  40582d: c9                           	leave
  40582e: ff ff                        	<unknown>
  405830: 48 02 00                     	addb	(%rax), %al
  405833: 00 d8                        	addb	%bl, %al
  405835: cb                           	lretl
  405836: ff ff                        	<unknown>
  405838: f8                           	clc
  405839: 01 00                        	addl	%eax, (%rax)
  40583b: 00 08                        	addb	%cl, (%rax)
  40583d: cc                           	int3
  40583e: ff ff                        	<unknown>
  405840: 0c 02                        	orb	$2, %al
  405842: 00 00                        	addb	%al, (%rax)
  405844: be cc ff ff ec               	movl	$3976200140, %esi       # imm = 0xECFFFFCC
  405849: 02 00                        	addb	(%rax), %al
  40584b: 00 1e                        	addb	%bl, (%rsi)
  40584d: cd ff                        	int	$255
  40584f: ff 0c 03                     	decl	(%rbx,%rax)
  405852: 00 00                        	addb	%al, (%rax)
  405854: 4c d0 ff                     	sarb	%dil
  405857: ff 30                        	pushq	(%rax)
  405859: 03 00                        	addl	(%rax), %eax
  40585b: 00 88 d0 ff ff 50            	addb	%cl, 1358954448(%rax)
  405861: 03 00                        	addl	(%rax), %eax
  405863: 00 f4                        	addb	%dh, %ah
  405865: d0 ff                        	sarb	%bh
  405867: ff 70 03                     	pushq	3(%rax)
  40586a: 00 00                        	addb	%al, (%rax)
  40586c: 0a d1                        	orb	%cl, %dl
  40586e: ff ff                        	<unknown>
  405870: 90                           	nop
  405871: 03 00                        	addl	(%rax), %eax
  405873: 00 20                        	addb	%ah, (%rax)
  405875: d1 ff                        	sarl	%edi
  405877: ff b0 03 00 00 33            	pushq	855638019(%rax)
  40587d: d1 ff                        	sarl	%edi
  40587f: ff 74 05 00                  	pushq	(%rbp,%rax)
  405883: 00 c3                        	addb	%al, %bl
  405885: d1 ff                        	sarl	%edi
  405887: ff 94 05 00 00 dc d1         	callq	*-774111232(%rbp,%rax)
  40588e: ff ff                        	<unknown>
  405890: 80 02 00                     	addb	$0, (%rdx)
  405893: 00 9c d2 ff ff a8 02         	addb	%bl, 44630015(%rdx,%rdx,8)
  40589a: 00 00                        	addb	%al, (%rax)
  40589c: bc d2 ff ff cc               	movl	$3439329234, %esp       # imm = 0xCCFFFFD2
  4058a1: 02 00                        	addb	(%rax), %al
  4058a3: 00 da                        	addb	%bl, %dl
  4058a5: d2 ff                        	sarb	%cl, %bh
  4058a7: ff d0                        	callq	*%rax
  4058a9: 03 00                        	addl	(%rax), %eax
  4058ab: 00 04 d3                     	addb	%al, (%rbx,%rdx,8)
  4058ae: ff ff                        	<unknown>
  4058b0: f0                           	lock
  4058b1: 03 00                        	addl	(%rax), %eax
  4058b3: 00 32                        	addb	%dh, (%rdx)
  4058b5: d3 ff                        	sarl	%cl, %edi
  4058b7: ff 10                        	callq	*(%rax)
  4058b9: 04 00                        	addb	$0, %al
  4058bb: 00 dc                        	addb	%bl, %ah
  4058bd: d3 ff                        	sarl	%cl, %edi
  4058bf: ff 30                        	pushq	(%rax)
  4058c1: 04 00                        	addb	$0, %al
  4058c3: 00 7b d5                     	addb	%bh, -43(%rbx)
  4058c6: ff ff                        	<unknown>
  4058c8: 54                           	pushq	%rsp
  4058c9: 04 00                        	addb	$0, %al
  4058cb: 00 99 d5 ff ff 74            	addb	%bl, 1962934229(%rcx)
  4058d1: 04 00                        	addb	$0, %al
  4058d3: 00 b8 d5 ff ff 94            	addb	%bh, -1795162155(%rax)
  4058d9: 04 00                        	addb	$0, %al
  4058db: 00 ce                        	addb	%cl, %dh
  4058dd: d5                           	<unknown>
  4058de: ff ff                        	<unknown>
  4058e0: b4 04                        	movb	$4, %ah
  4058e2: 00 00                        	addb	%al, (%rax)
  4058e4: e2 d5                        	loop	0x4058bb <.eh_frame_hdr+0xa3>
  4058e6: ff ff                        	<unknown>
  4058e8: d4                           	<unknown>
  4058e9: 04 00                        	addb	$0, %al
  4058eb: 00 7a d6                     	addb	%bh, -42(%rdx)
  4058ee: ff ff                        	<unknown>
  4058f0: f4                           	hlt
  4058f1: 04 00                        	addb	$0, %al
  4058f3: 00 a2 d6 ff ff 14            	addb	%ah, 352321494(%rdx)
  4058f9: 05 00 00 c5 d6               	addl	$3603234816, %eax       # imm = 0xD6C50000
  4058fe: ff ff                        	<unknown>
  405900: 34 05                        	xorb	$5, %al
  405902: 00 00                        	addb	%al, (%rax)
  405904: 0e                           	<unknown>
  405905: d7                           	xlatb
  405906: ff ff                        	<unknown>
  405908: 54                           	pushq	%rsp
  405909: 05 00 00 ce d8               	addl	$3637379072, %eax       # imm = 0xD8CE0000
  40590e: ff ff                        	<unknown>
  405910: b8 05 00 00 4a               	movl	$1241513989, %eax       # imm = 0x4A000005
  405915: d9 ff                        	fcos
  405917: ff dc                        	<unknown>
  405919: 05 00 00 62 da               	addl	$3663855616, %eax       # imm = 0xDA620000
  40591e: ff ff                        	<unknown>
  405920: fc                           	cld
  405921: 05 00 00 d6 db               	addl	$3688235008, %eax       # imm = 0xDBD60000
  405926: ff ff                        	<unknown>
  405928: 1c 06                        	sbbb	$6, %al
  40592a: 00 00                        	addb	%al, (%rax)
  40592c: 48 dc ff                     	fdivr	%st, %st(7)
  40592f: ff 3c 06                     	<unknown>
  405932: 00 00                        	addb	%al, (%rax)
  405934: 75 dc                        	jne	0x405912 <.eh_frame_hdr+0xfa>
  405936: ff ff                        	<unknown>
  405938: 5c                           	popq	%rsp
  405939: 06                           	<unknown>
  40593a: 00 00                        	addb	%al, (%rax)
  40593c: a2 dc ff ff 80 06 00 00 1e   	movabsb	%al, 2161727849071902684
  405945: dd ff                        	<unknown>
  405947: ff a4 06 00 00 a4 dd         	jmpq	*-576454656(%rsi,%rax)
  40594e: ff ff                        	<unknown>
  405950: c4 06 00 00                  	<unknown>
  405954: 7e de                        	jle	0x405934 <.eh_frame_hdr+0x11c>
  405956: ff ff                        	<unknown>
  405958: e4 06                        	inb	$6, %al
  40595a: 00 00                        	addb	%al, (%rax)
  40595c: 91                           	xchgl	%ecx, %eax
  40595d: de ff                        	fdivrp	%st, %st(7)
  40595f: ff 28                        	ljmpl	*(%rax)
  405961: 07                           	<unknown>
  405962: 00 00                        	addb	%al, (%rax)
  405964: af                           	scasl	%es:(%rdi), %eax
  405965: de ff                        	fdivrp	%st, %st(7)
  405967: ff 48 07                     	decl	7(%rax)
  40596a: 00 00                        	addb	%al, (%rax)
  40596c: 36 df ff                     	<unknown>
  40596f: ff 68 07                     	ljmpl	*7(%rax)
  405972: 00 00                        	addb	%al, (%rax)
  405974: 92                           	xchgl	%edx, %eax
  405975: df ff                        	<unknown>
  405977: ff 90 07 00 00 cd            	callq	*-855638009(%rax)
  40597d: df ff                        	<unknown>
  40597f: ff b0 07 00 00 63            	pushq	1660944391(%rax)
  405985: e0 ff                        	loopne	0x405986 <.eh_frame_hdr+0x16e>
  405987: ff d0                        	callq	*%rax
  405989: 07                           	<unknown>
  40598a: 00 00                        	addb	%al, (%rax)
  40598c: 8b e0                        	movl	%eax, %esp
  40598e: ff ff                        	<unknown>
  405990: f0                           	lock
  405991: 07                           	<unknown>
  405992: 00 00                        	addb	%al, (%rax)
  405994: b3 e0                        	movb	$-32, %bl
  405996: ff ff                        	<unknown>
  405998: 10 08                        	adcb	%cl, (%rax)
  40599a: 00 00                        	addb	%al, (%rax)
  40599c: d3 e1                        	shll	%cl, %ecx
  40599e: ff ff                        	<unknown>
  4059a0: 38 08                        	cmpb	%cl, (%rax)
  4059a2: 00 00                        	addb	%al, (%rax)
  4059a4: 91                           	xchgl	%ecx, %eax
  4059a5: e3 ff                        	jrcxz	0x4059a6 <.eh_frame_hdr+0x18e>
  4059a7: ff 58 08                     	lcalll	*8(%rax)
  4059aa: 00 00                        	addb	%al, (%rax)
  4059ac: af                           	scasl	%es:(%rdi), %eax
  4059ad: e3 ff                        	jrcxz	0x4059ae <.eh_frame_hdr+0x196>
  4059af: ff 78 08                     	<unknown>
  4059b2: 00 00                        	addb	%al, (%rax)
  4059b4: 06                           	<unknown>
  4059b5: e6 ff                        	outb	%al, $255
  4059b7: ff a0 08 00 00 1d            	jmpq	*486539272(%rax)
  4059bd: e6 ff                        	outb	%al, $255
  4059bf: ff c0                        	incl	%eax
  4059c1: 08 00                        	orb	%al, (%rax)
  4059c3: 00 34 e6                     	addb	%dh, (%rsi,%riz,8)
  4059c6: ff ff                        	<unknown>
  4059c8: e0 08                        	loopne	0x4059d2 <.eh_frame_hdr+0x1ba>
  4059ca: 00 00                        	addb	%al, (%rax)
  4059cc: ce                           	<unknown>
  4059cd: e6 ff                        	outb	%al, $255
  4059cf: ff 00                        	incl	(%rax)
  4059d1: 09 00                        	orl	%eax, (%rax)
  4059d3: 00 1b                        	addb	%bl, (%rbx)
  4059d5: e7 ff                        	outl	%eax, $255
  4059d7: ff 20                        	jmpq	*(%rax)
  4059d9: 09 00                        	orl	%eax, (%rax)
  4059db: 00 34 e7                     	addb	%dh, (%rdi,%riz,8)
  4059de: ff ff                        	<unknown>
  4059e0: 08 07                        	orb	%al, (%rdi)
  4059e2: 00 00                        	addb	%al, (%rax)
  4059e4: 48 e7 ff                     	outl	%eax, $255
  4059e7: ff 40 09                     	incl	9(%rax)
  4059ea: 00 00                        	addb	%al, (%rax)
  4059ec: b8 e7 ff ff 88               	movl	$2298478567, %eax       # imm = 0x88FFFFE7
  4059f1: 09 00                        	orl	%eax, (%rax)
  4059f3: 00                           	<unknown>


00000000004059f8 <.eh_frame>:
  4059f8: 14 00                        	adcb	$0, %al
  4059fa: 00 00                        	addb	%al, (%rax)
  4059fc: 00 00                        	addb	%al, (%rax)
  4059fe: 00 00                        	addb	%al, (%rax)
  405a00: 01 7a 52                     	addl	%edi, 82(%rdx)
  405a03: 00 01                        	addb	%al, (%rcx)
  405a05: 78 10                        	js	0x405a17 <.eh_frame+0x1f>
  405a07: 01 1b                        	addl	%ebx, (%rbx)
  405a09: 0c 07                        	orb	$7, %al
  405a0b: 08 90 01 00 00 10            	orb	%dl, 268435457(%rax)
  405a11: 00 00                        	addb	%al, (%rax)
  405a13: 00 1c 00                     	addb	%bl, (%rax,%rax)
  405a16: 00 00                        	addb	%al, (%rax)
  405a18: d8 c9                        	fmul	%st(1), %st
  405a1a: ff ff                        	<unknown>
  405a1c: 2f                           	<unknown>
  405a1d: 00 00                        	addb	%al, (%rax)
  405a1f: 00 00                        	addb	%al, (%rax)
  405a21: 44 07                        	<unknown>
  405a23: 10 10                        	adcb	%dl, (%rax)
  405a25: 00 00                        	addb	%al, (%rax)
  405a27: 00 30                        	addb	%dh, (%rax)
  405a29: 00 00                        	addb	%al, (%rax)
  405a2b: 00 f4                        	addb	%dh, %ah
  405a2d: c9                           	leave
  405a2e: ff ff                        	<unknown>
  405a30: 05 00 00 00 00               	addl	$0, %eax
  405a35: 00 00                        	addb	%al, (%rax)
  405a37: 00 24 00                     	addb	%ah, (%rax,%rax)
  405a3a: 00 00                        	addb	%al, (%rax)
  405a3c: 44 00 00                     	addb	%r8b, (%rax)
  405a3f: 00 e0                        	addb	%ah, %al
  405a41: c5 ff ff                     	<unknown>
  405a44: f0                           	lock
  405a45: 01 00                        	addl	%eax, (%rax)
  405a47: 00 00                        	addb	%al, (%rax)
  405a49: 0e                           	<unknown>
  405a4a: 10 46 0e                     	adcb	%al, 14(%rsi)
  405a4d: 18 4a 0f                     	sbbb	%cl, 15(%rdx)
  405a50: 0b 77 08                     	orl	8(%rdi), %esi
  405a53: 80 00 3f                     	addb	$63, (%rax)
  405a56: 1a 3a                        	sbbb	(%rdx), %bh
  405a58: 2a 33                        	subb	(%rbx), %dh
  405a5a: 24 22                        	andb	$34, %al
  405a5c: 00 00                        	addb	%al, (%rax)
  405a5e: 00 00                        	addb	%al, (%rax)
  405a60: 14 00                        	adcb	$0, %al
  405a62: 00 00                        	addb	%al, (%rax)
  405a64: 6c                           	insb	%dx, %es:(%rdi)
  405a65: 00 00                        	addb	%al, (%rax)
  405a67: 00 a8 c7 ff ff e0            	addb	%ch, -520093753(%rax)
  405a6d: 01 00                        	addl	%eax, (%rax)
		...
  405a77: 00 1c 00                     	addb	%bl, (%rax,%rax)
  405a7a: 00 00                        	addb	%al, (%rax)
  405a7c: 00 00                        	addb	%al, (%rax)
  405a7e: 00 00                        	addb	%al, (%rax)
  405a80: 01 7a 50                     	addl	%edi, 80(%rdx)
  405a83: 4c 52                        	pushq	%rdx
  405a85: 00 01                        	addb	%al, (%rcx)
  405a87: 78 10                        	js	0x405a99 <.eh_frame+0xa1>
  405a89: 07                           	<unknown>
  405a8a: 9b                           	wait
  405a8b: 8d 26                        	leal	(%rsi), %esp
  405a8d: 00 00                        	addb	%al, (%rax)
  405a8f: 1b 1b                        	sbbl	(%rbx), %ebx
  405a91: 0c 07                        	orb	$7, %al
  405a93: 08 90 01 00 00 24            	orb	%dl, 603979777(%rax)
  405a99: 00 00                        	addb	%al, (%rax)
  405a9b: 00 24 00                     	addb	%ah, (%rax,%rax)
  405a9e: 00 00                        	addb	%al, (%rax)
  405aa0: 54                           	pushq	%rsp
  405aa1: cf                           	iretl
  405aa2: ff ff                        	<unknown>
  405aa4: bf 00 00 00 04               	movl	$67108864, %edi         # imm = 0x4000000
  405aa9: 0f 07                        	sysretl
  405aab: 00 00                        	addb	%al, (%rax)
  405aad: 45 0e                        	<unknown>
  405aaf: 10 86 02 43 0d 06            	adcb	%al, 101532418(%rsi)
  405ab5: 45 83 03 02                  	addl	$2, (%r11)
  405ab9: b1 0c                        	movb	$12, %cl
  405abb: 07                           	<unknown>
  405abc: 08 00                        	orb	%al, (%rax)
  405abe: 00 00                        	addb	%al, (%rax)
  405ac0: 20 00                        	andb	%al, (%rax)
  405ac2: 00 00                        	addb	%al, (%rax)
  405ac4: 4c 00 00                     	addb	%r8b, (%rax)
  405ac7: 00 ec                        	addb	%ch, %ah
  405ac9: cf                           	iretl
  405aca: ff ff                        	<unknown>
  405acc: 1f                           	<unknown>
  405acd: 00 00                        	addb	%al, (%rax)
  405acf: 00 04 fa                     	addb	%al, (%rdx,%rdi,8)
  405ad2: 06                           	<unknown>
  405ad3: 00 00                        	addb	%al, (%rax)
  405ad5: 45 0e                        	<unknown>
  405ad7: 10 86 02 43 0d 06            	adcb	%al, 101532418(%rsi)
  405add: 56                           	pushq	%rsi
  405ade: 0c 07                        	orb	$7, %al
  405ae0: 08 00                        	orb	%al, (%rax)
  405ae2: 00 00                        	addb	%al, (%rax)
  405ae4: 1c 00                        	sbbb	$0, %al
  405ae6: 00 00                        	addb	%al, (%rax)
  405ae8: f0                           	lock
  405ae9: 00 00                        	addb	%al, (%rax)
  405aeb: 00 e8                        	addb	%ch, %al
  405aed: cf                           	iretl
  405aee: ff ff                        	<unknown>
  405af0: 1e                           	<unknown>
  405af1: 00 00                        	addb	%al, (%rax)
  405af3: 00 00                        	addb	%al, (%rax)
  405af5: 45 0e                        	<unknown>
  405af7: 10 86 02 43 0d 06            	adcb	%al, 101532418(%rsi)
  405afd: 55                           	pushq	%rbp
  405afe: 0c 07                        	orb	$7, %al
  405b00: 08 00                        	orb	%al, (%rax)
  405b02: 00 00                        	addb	%al, (%rax)
  405b04: 1c 00                        	sbbb	$0, %al
  405b06: 00 00                        	addb	%al, (%rax)
  405b08: 10 01                        	adcb	%al, (%rcx)
  405b0a: 00 00                        	addb	%al, (%rax)
  405b0c: ca c9 ff                     	lretl	$-55
  405b0f: ff 5f 00                     	lcalll	*(%rdi)
  405b12: 00 00                        	addb	%al, (%rax)
  405b14: 00 45 0e                     	addb	%al, 14(%rbp)
  405b17: 10 86 02 43 0d 06            	adcb	%al, 101532418(%rsi)
  405b1d: 02 56 0c                     	addb	12(%rsi), %dl
  405b20: 07                           	<unknown>
  405b21: 08 00                        	orb	%al, (%rax)
  405b23: 00 20                        	addb	%ah, (%rax)
  405b25: 00 00                        	addb	%al, (%rax)
  405b27: 00 30                        	addb	%dh, (%rax)
  405b29: 01 00                        	addl	%eax, (%rax)
  405b2b: 00 0a                        	addb	%cl, (%rdx)
  405b2d: ca ff ff                     	lretl	$-1
  405b30: 2e 03 00                     	addl	%cs:(%rax), %eax
  405b33: 00 00                        	addb	%al, (%rax)
  405b35: 45 0e                        	<unknown>
  405b37: 10 86 02 43 0d 06            	adcb	%al, 101532418(%rsi)
  405b3d: 45 83 03 03                  	addl	$3, (%r11)
  405b41: 20 03                        	andb	%al, (%rbx)
  405b43: 0c 07                        	orb	$7, %al
  405b45: 08 00                        	orb	%al, (%rax)
  405b47: 00 1c 00                     	addb	%bl, (%rax,%rax)
  405b4a: 00 00                        	addb	%al, (%rax)
  405b4c: 54                           	pushq	%rsp
  405b4d: 01 00                        	addl	%eax, (%rax)
  405b4f: 00 14 cd ff ff 3c 00         	addb	%dl, 3997695(,%rcx,8)
  405b56: 00 00                        	addb	%al, (%rax)
  405b58: 00 45 0e                     	addb	%al, 14(%rbp)
  405b5b: 10 86 02 43 0d 06            	adcb	%al, 101532418(%rsi)
  405b61: 73 0c                        	jae	0x405b6f <.eh_frame+0x177>
  405b63: 07                           	<unknown>
  405b64: 08 00                        	orb	%al, (%rax)
  405b66: 00 00                        	addb	%al, (%rax)
  405b68: 1c 00                        	sbbb	$0, %al
  405b6a: 00 00                        	addb	%al, (%rax)
  405b6c: 74 01                        	je	0x405b6f <.eh_frame+0x177>
  405b6e: 00 00                        	addb	%al, (%rax)
  405b70: 30 cd                        	xorb	%cl, %ch
  405b72: ff ff                        	<unknown>
  405b74: 6b 00 00                     	imull	$0, (%rax), %eax
  405b77: 00 00                        	addb	%al, (%rax)
  405b79: 45 0e                        	<unknown>
  405b7b: 10 86 02 43 0d 06            	adcb	%al, 101532418(%rsi)
  405b81: 02 62 0c                     	addb	12(%rdx), %ah
  405b84: 07                           	<unknown>
  405b85: 08 00                        	orb	%al, (%rax)
  405b87: 00 1c 00                     	addb	%bl, (%rax,%rax)
  405b8a: 00 00                        	addb	%al, (%rax)
  405b8c: 94                           	xchgl	%esp, %eax
  405b8d: 01 00                        	addl	%eax, (%rax)
  405b8f: 00 7c cd ff                  	addb	%bh, -1(%rbp,%rcx,8)
  405b93: ff 16                        	callq	*(%rsi)
  405b95: 00 00                        	addb	%al, (%rax)
  405b97: 00 00                        	addb	%al, (%rax)
  405b99: 45 0e                        	<unknown>
  405b9b: 10 86 02 43 0d 06            	adcb	%al, 101532418(%rsi)
  405ba1: 4d 0c 07                     	orb	$7, %al
  405ba4: 08 00                        	orb	%al, (%rax)
  405ba6: 00 00                        	addb	%al, (%rax)
  405ba8: 1c 00                        	sbbb	$0, %al
  405baa: 00 00                        	addb	%al, (%rax)
  405bac: b4 01                        	movb	$1, %ah
  405bae: 00 00                        	addb	%al, (%rax)
  405bb0: 72 cd                        	jb	0x405b7f <.eh_frame+0x187>
  405bb2: ff ff                        	<unknown>
  405bb4: 16                           	<unknown>
  405bb5: 00 00                        	addb	%al, (%rax)
  405bb7: 00 00                        	addb	%al, (%rax)
  405bb9: 45 0e                        	<unknown>
  405bbb: 10 86 02 43 0d 06            	adcb	%al, 101532418(%rsi)
  405bc1: 4d 0c 07                     	orb	$7, %al
  405bc4: 08 00                        	orb	%al, (%rax)
  405bc6: 00 00                        	addb	%al, (%rax)
  405bc8: 1c 00                        	sbbb	$0, %al
  405bca: 00 00                        	addb	%al, (%rax)
  405bcc: d4                           	<unknown>
  405bcd: 01 00                        	addl	%eax, (%rax)
  405bcf: 00 68 cd                     	addb	%ch, -51(%rax)
  405bd2: ff ff                        	<unknown>
  405bd4: 13 00                        	adcl	(%rax), %eax
  405bd6: 00 00                        	addb	%al, (%rax)
  405bd8: 00 45 0e                     	addb	%al, 14(%rbp)
  405bdb: 10 86 02 43 0d 06            	adcb	%al, 101532418(%rsi)
  405be1: 4a 0c 07                     	orb	$7, %al
  405be4: 08 00                        	orb	%al, (%rax)
  405be6: 00 00                        	addb	%al, (%rax)
  405be8: 1c 00                        	sbbb	$0, %al
  405bea: 00 00                        	addb	%al, (%rax)
  405bec: f4                           	hlt
  405bed: 01 00                        	addl	%eax, (%rax)
  405bef: 00 02                        	addb	%al, (%rdx)
  405bf1: cf                           	iretl
  405bf2: ff ff                        	<unknown>
  405bf4: 2a 00                        	subb	(%rax), %al
  405bf6: 00 00                        	addb	%al, (%rax)
  405bf8: 00 45 0e                     	addb	%al, 14(%rbp)
  405bfb: 10 86 02 43 0d 06            	adcb	%al, 101532418(%rsi)
  405c01: 61                           	<unknown>
  405c02: 0c 07                        	orb	$7, %al
  405c04: 08 00                        	orb	%al, (%rax)
  405c06: 00 00                        	addb	%al, (%rax)
  405c08: 1c 00                        	sbbb	$0, %al
  405c0a: 00 00                        	addb	%al, (%rax)
  405c0c: 14 02                        	adcb	$2, %al
  405c0e: 00 00                        	addb	%al, (%rax)
  405c10: 0c cf                        	orb	$-49, %al
  405c12: ff ff                        	<unknown>
  405c14: 2d 00 00 00 00               	subl	$0, %eax
  405c19: 45 0e                        	<unknown>
  405c1b: 10 86 02 43 0d 06            	adcb	%al, 101532418(%rsi)
  405c21: 64 0c 07                     	orb	$7, %al
  405c24: 08 00                        	orb	%al, (%rax)
  405c26: 00 00                        	addb	%al, (%rax)
  405c28: 1c 00                        	sbbb	$0, %al
  405c2a: 00 00                        	addb	%al, (%rax)
  405c2c: 34 02                        	xorb	$2, %al
  405c2e: 00 00                        	addb	%al, (%rax)
  405c30: 1a cf                        	sbbb	%bh, %cl
  405c32: ff ff                        	<unknown>
  405c34: a9 00 00 00 00               	testl	$0, %eax
  405c39: 45 0e                        	<unknown>
  405c3b: 10 86 02 43 0d 06            	adcb	%al, 101532418(%rsi)
  405c41: 02 a0 0c 07 08 00            	addb	526092(%rax), %ah
  405c47: 00 20                        	addb	%ah, (%rax)
  405c49: 00 00                        	addb	%al, (%rax)
  405c4b: 00 54 02 00                  	addb	%dl, (%rdx,%rax)
  405c4f: 00 a4 cf ff ff 9f 01         	addb	%ah, 27262975(%rdi,%rcx,8)
  405c56: 00 00                        	addb	%al, (%rax)
  405c58: 00 45 0e                     	addb	%al, 14(%rbp)
  405c5b: 10 86 02 43 0d 06            	adcb	%al, 101532418(%rsi)
  405c61: 48 83 03 03                  	addq	$3, (%rbx)
  405c65: 8e 01                        	movw	(%rcx), %es
  405c67: 0c 07                        	orb	$7, %al
  405c69: 08 00                        	orb	%al, (%rax)
  405c6b: 00 1c 00                     	addb	%bl, (%rax,%rax)
  405c6e: 00 00                        	addb	%al, (%rax)
  405c70: 78 02                        	js	0x405c74 <.eh_frame+0x27c>
  405c72: 00 00                        	addb	%al, (%rax)
  405c74: 1f                           	<unknown>
  405c75: d1 ff                        	sarl	%edi
  405c77: ff 1e                        	lcalll	*(%rsi)
  405c79: 00 00                        	addb	%al, (%rax)
  405c7b: 00 00                        	addb	%al, (%rax)
  405c7d: 45 0e                        	<unknown>
  405c7f: 10 86 02 43 0d 06            	adcb	%al, 101532418(%rsi)
  405c85: 55                           	pushq	%rbp
  405c86: 0c 07                        	orb	$7, %al
  405c88: 08 00                        	orb	%al, (%rax)
  405c8a: 00 00                        	addb	%al, (%rax)
  405c8c: 1c 00                        	sbbb	$0, %al
  405c8e: 00 00                        	addb	%al, (%rax)
  405c90: 98                           	cwtl
  405c91: 02 00                        	addb	(%rax), %al
  405c93: 00 1d d1 ff ff 1e            	addb	%bl, 520093649(%rip)    # 0x1f405c6a <_ZSt3cin+0x1effda0a>
  405c99: 00 00                        	addb	%al, (%rax)
  405c9b: 00 00                        	addb	%al, (%rax)
  405c9d: 45 0e                        	<unknown>
  405c9f: 10 86 02 43 0d 06            	adcb	%al, 101532418(%rsi)
  405ca5: 55                           	pushq	%rbp
  405ca6: 0c 07                        	orb	$7, %al
  405ca8: 08 00                        	orb	%al, (%rax)
  405caa: 00 00                        	addb	%al, (%rax)
  405cac: 1c 00                        	sbbb	$0, %al
  405cae: 00 00                        	addb	%al, (%rax)
  405cb0: b8 02 00 00 1c               	movl	$469762050, %eax        # imm = 0x1C000002
  405cb5: d1 ff                        	sarl	%edi
  405cb7: ff 15 00 00 00 00            	callq	*(%rip)                 # 0x405cbd <.eh_frame+0x2c5>
  405cbd: 45 0e                        	<unknown>
  405cbf: 10 86 02 43 0d 06            	adcb	%al, 101532418(%rsi)
  405cc5: 4c 0c 07                     	orb	$7, %al
  405cc8: 08 00                        	orb	%al, (%rax)
  405cca: 00 00                        	addb	%al, (%rax)
  405ccc: 1c 00                        	sbbb	$0, %al
  405cce: 00 00                        	addb	%al, (%rax)
  405cd0: d8 02                        	fadds	(%rdx)
  405cd2: 00 00                        	addb	%al, (%rax)
  405cd4: 12 d1                        	adcb	%cl, %dl
  405cd6: ff ff                        	<unknown>
  405cd8: 14 00                        	adcb	$0, %al
  405cda: 00 00                        	addb	%al, (%rax)
  405cdc: 00 45 0e                     	addb	%al, 14(%rbp)
  405cdf: 10 86 02 43 0d 06            	adcb	%al, 101532418(%rsi)
  405ce5: 4b 0c 07                     	orb	$7, %al
  405ce8: 08 00                        	orb	%al, (%rax)
  405cea: 00 00                        	addb	%al, (%rax)
  405cec: 1c 00                        	sbbb	$0, %al
  405cee: 00 00                        	addb	%al, (%rax)
  405cf0: f8                           	clc
  405cf1: 02 00                        	addb	(%rax), %al
  405cf3: 00 06                        	addb	%al, (%rsi)
  405cf5: d1 ff                        	sarl	%edi
  405cf7: ff 97 00 00 00 00            	callq	*(%rdi)
  405cfd: 45 0e                        	<unknown>
  405cff: 10 86 02 43 0d 06            	adcb	%al, 101532418(%rsi)
  405d05: 02 8e 0c 07 08 00            	addb	526092(%rsi), %cl
  405d0b: 00 1c 00                     	addb	%bl, (%rax,%rax)
  405d0e: 00 00                        	addb	%al, (%rax)
  405d10: 18 03                        	sbbb	%al, (%rbx)
  405d12: 00 00                        	addb	%al, (%rax)
  405d14: 7e d1                        	jle	0x405ce7 <.eh_frame+0x2ef>
  405d16: ff ff                        	<unknown>
  405d18: 28 00                        	subb	%al, (%rax)
  405d1a: 00 00                        	addb	%al, (%rax)
  405d1c: 00 45 0e                     	addb	%al, 14(%rbp)
  405d1f: 10 86 02 43 0d 06            	adcb	%al, 101532418(%rsi)
  405d25: 5f                           	popq	%rdi
  405d26: 0c 07                        	orb	$7, %al
  405d28: 08 00                        	orb	%al, (%rax)
  405d2a: 00 00                        	addb	%al, (%rax)
  405d2c: 1c 00                        	sbbb	$0, %al
  405d2e: 00 00                        	addb	%al, (%rax)
  405d30: 38 03                        	cmpb	%al, (%rbx)
  405d32: 00 00                        	addb	%al, (%rax)
  405d34: 86 d1                        	xchgb	%cl, %dl
  405d36: ff ff                        	<unknown>
  405d38: 23 00                        	andl	(%rax), %eax
  405d3a: 00 00                        	addb	%al, (%rax)
  405d3c: 00 45 0e                     	addb	%al, 14(%rbp)
  405d3f: 10 86 02 43 0d 06            	adcb	%al, 101532418(%rsi)
  405d45: 5a                           	popq	%rdx
  405d46: 0c 07                        	orb	$7, %al
  405d48: 08 00                        	orb	%al, (%rax)
  405d4a: 00 00                        	addb	%al, (%rax)
  405d4c: 1c 00                        	sbbb	$0, %al
  405d4e: 00 00                        	addb	%al, (%rax)
  405d50: 58                           	popq	%rax
  405d51: 03 00                        	addl	(%rax), %eax
  405d53: 00 89 d1 ff ff 49            	addb	%cl, 1241513937(%rcx)
  405d59: 00 00                        	addb	%al, (%rax)
  405d5b: 00 00                        	addb	%al, (%rax)
  405d5d: 45 0e                        	<unknown>
  405d5f: 10 86 02 43 0d 06            	adcb	%al, 101532418(%rsi)
  405d65: 02 40 0c                     	addb	12(%rax), %al
  405d68: 07                           	<unknown>
  405d69: 08 00                        	orb	%al, (%rax)
  405d6b: 00 1c 00                     	addb	%bl, (%rax,%rax)
  405d6e: 00 00                        	addb	%al, (%rax)
  405d70: 78 03                        	js	0x405d75 <.eh_frame+0x37d>
  405d72: 00 00                        	addb	%al, (%rax)
  405d74: b2 d1                        	movb	$-47, %dl
  405d76: ff ff                        	<unknown>
  405d78: c0 01 00                     	rolb	$0, (%rcx)
  405d7b: 00 00                        	addb	%al, (%rax)
  405d7d: 45 0e                        	<unknown>
  405d7f: 10 86 02 43 0d 06            	adcb	%al, 101532418(%rsi)
  405d85: 03 b7 01 0c 07 08            	addl	134679553(%rdi), %esi
  405d8b: 00 1c 00                     	addb	%bl, (%rax,%rax)
  405d8e: 00 00                        	addb	%al, (%rax)
  405d90: 98                           	cwtl
  405d91: 03 00                        	addl	(%rax), %eax
  405d93: 00 b7 cb ff ff 90            	addb	%dh, -1862271029(%rdi)
  405d99: 00 00                        	addb	%al, (%rax)
  405d9b: 00 00                        	addb	%al, (%rax)
  405d9d: 45 0e                        	<unknown>
  405d9f: 10 86 02 43 0d 06            	adcb	%al, 101532418(%rsi)
  405da5: 02 87 0c 07 08 00            	addb	526092(%rdi), %al
  405dab: 00 20                        	addb	%ah, (%rax)
  405dad: 00 00                        	addb	%al, (%rax)
  405daf: 00 b8 03 00 00 27            	addb	%bh, 654311427(%rax)
  405db5: cc                           	int3
  405db6: ff ff                        	<unknown>
  405db8: 19 00                        	sbbl	%eax, (%rax)
  405dba: 00 00                        	addb	%al, (%rax)
  405dbc: 00 45 0e                     	addb	%al, 14(%rbp)
  405dbf: 10 86 02 43 0d 06            	adcb	%al, 101532418(%rsi)
  405dc5: 50                           	pushq	%rax
  405dc6: 0c 07                        	orb	$7, %al
  405dc8: 08 00                        	orb	%al, (%rax)
  405dca: 00 00                        	addb	%al, (%rax)
  405dcc: 00 00                        	addb	%al, (%rax)
  405dce: 00 00                        	addb	%al, (%rax)
  405dd0: 20 00                        	andb	%al, (%rax)
  405dd2: 00 00                        	addb	%al, (%rax)
  405dd4: dc 03                        	faddl	(%rbx)
  405dd6: 00 00                        	addb	%al, (%rax)
  405dd8: 0e                           	<unknown>
  405dd9: d3 ff                        	sarl	%cl, %edi
  405ddb: ff 7b 00                     	<unknown>
  405dde: 00 00                        	addb	%al, (%rax)
  405de0: 00 45 0e                     	addb	%al, 14(%rbp)
  405de3: 10 86 02 43 0d 06            	adcb	%al, 101532418(%rsi)
  405de9: 45 83 03 02                  	addl	$2, (%r11)
  405ded: 6d                           	insl	%dx, %es:(%rdi)
  405dee: 0c 07                        	orb	$7, %al
  405df0: 08 00                        	orb	%al, (%rax)
  405df2: 00 00                        	addb	%al, (%rax)
  405df4: 1c 00                        	sbbb	$0, %al
  405df6: 00 00                        	addb	%al, (%rax)
  405df8: 00 04 00                     	addb	%al, (%rax,%rax)
  405dfb: 00 66 d3                     	addb	%ah, -45(%rsi)
  405dfe: ff ff                        	<unknown>
  405e00: 18 01                        	sbbb	%al, (%rcx)
  405e02: 00 00                        	addb	%al, (%rax)
  405e04: 00 45 0e                     	addb	%al, 14(%rbp)
  405e07: 10 86 02 43 0d 06            	adcb	%al, 101532418(%rsi)
  405e0d: 03 0f                        	addl	(%rdi), %ecx
  405e0f: 01 0c 07                     	addl	%ecx, (%rdi,%rax)
  405e12: 08 00                        	orb	%al, (%rax)
  405e14: 1c 00                        	sbbb	$0, %al
  405e16: 00 00                        	addb	%al, (%rax)
  405e18: 20 04 00                     	andb	%al, (%rax,%rax)
  405e1b: 00 5e d4                     	addb	%bl, -44(%rsi)
  405e1e: ff ff                        	<unknown>
  405e20: 73 01                        	jae	0x405e23 <.eh_frame+0x42b>
  405e22: 00 00                        	addb	%al, (%rax)
  405e24: 00 45 0e                     	addb	%al, 14(%rbp)
  405e27: 10 86 02 43 0d 06            	adcb	%al, 101532418(%rsi)
  405e2d: 03 6a 01                     	addl	1(%rdx), %ebp
  405e30: 0c 07                        	orb	$7, %al
  405e32: 08 00                        	orb	%al, (%rax)
  405e34: 1c 00                        	sbbb	$0, %al
  405e36: 00 00                        	addb	%al, (%rax)
  405e38: 40 04 00                     	addb	$0, %al
  405e3b: 00 b2 d5 ff ff 71            	addb	%dh, 1912602581(%rdx)
  405e41: 00 00                        	addb	%al, (%rax)
  405e43: 00 00                        	addb	%al, (%rax)
  405e45: 45 0e                        	<unknown>
  405e47: 10 86 02 43 0d 06            	adcb	%al, 101532418(%rsi)
  405e4d: 02 68 0c                     	addb	12(%rax), %ch
  405e50: 07                           	<unknown>
  405e51: 08 00                        	orb	%al, (%rax)
  405e53: 00 1c 00                     	addb	%bl, (%rax,%rax)
  405e56: 00 00                        	addb	%al, (%rax)
  405e58: 60                           	<unknown>
  405e59: 04 00                        	addb	$0, %al
  405e5b: 00 04 d6                     	addb	%al, (%rsi,%rdx,8)
  405e5e: ff ff                        	<unknown>
  405e60: 2d 00 00 00 00               	subl	$0, %eax
  405e65: 45 0e                        	<unknown>
  405e67: 10 86 02 43 0d 06            	adcb	%al, 101532418(%rsi)
  405e6d: 64 0c 07                     	orb	$7, %al
  405e70: 08 00                        	orb	%al, (%rax)
  405e72: 00 00                        	addb	%al, (%rax)
  405e74: 20 00                        	andb	%al, (%rax)
  405e76: 00 00                        	addb	%al, (%rax)
  405e78: 80 04 00 00                  	addb	$0, (%rax,%rax)
  405e7c: 11 d6                        	adcl	%edx, %esi
  405e7e: ff ff                        	<unknown>
  405e80: 2c 00                        	subb	$0, %al
  405e82: 00 00                        	addb	%al, (%rax)
  405e84: 00 45 0e                     	addb	%al, 14(%rbp)
  405e87: 10 86 02 43 0d 06            	adcb	%al, 101532418(%rsi)
  405e8d: 63 0c 07                     	movslq	(%rdi,%rax), %ecx
  405e90: 08 00                        	orb	%al, (%rax)
  405e92: 00 00                        	addb	%al, (%rax)
  405e94: 00 00                        	addb	%al, (%rax)
  405e96: 00 00                        	addb	%al, (%rax)
  405e98: 20 00                        	andb	%al, (%rax)
  405e9a: 00 00                        	addb	%al, (%rax)
  405e9c: a4                           	movsb	(%rsi), %es:(%rdi)
  405e9d: 04 00                        	addb	$0, %al
  405e9f: 00 1a                        	addb	%bl, (%rdx)
  405ea1: d6                           	<unknown>
  405ea2: ff ff                        	<unknown>
  405ea4: 7b 00                        	jnp	0x405ea6 <.eh_frame+0x4ae>
  405ea6: 00 00                        	addb	%al, (%rax)
  405ea8: 00 45 0e                     	addb	%al, 14(%rbp)
  405eab: 10 86 02 43 0d 06            	adcb	%al, 101532418(%rsi)
  405eb1: 45 83 03 02                  	addl	$2, (%r11)
  405eb5: 6d                           	insl	%dx, %es:(%rdi)
  405eb6: 0c 07                        	orb	$7, %al
  405eb8: 08 00                        	orb	%al, (%rax)
  405eba: 00 00                        	addb	%al, (%rax)
  405ebc: 1c 00                        	sbbb	$0, %al
  405ebe: 00 00                        	addb	%al, (%rax)
  405ec0: c8 04 00 00                  	enter	$4, $0
  405ec4: 72 d6                        	jb	0x405e9c <.eh_frame+0x4a4>
  405ec6: ff ff                        	<unknown>
  405ec8: 86 00                        	xchgb	%al, (%rax)
  405eca: 00 00                        	addb	%al, (%rax)
  405ecc: 00 45 0e                     	addb	%al, 14(%rbp)
  405ecf: 10 86 02 43 0d 06            	adcb	%al, 101532418(%rsi)
  405ed5: 02 7d 0c                     	addb	12(%rbp), %bh
  405ed8: 07                           	<unknown>
  405ed9: 08 00                        	orb	%al, (%rax)
  405edb: 00 1c 00                     	addb	%bl, (%rax,%rax)
  405ede: 00 00                        	addb	%al, (%rax)
  405ee0: e8 04 00 00 d8               	callq	0xffffffffd8405ee9 <_ZSt3cin+0xffffffffd7ffdc89>
  405ee5: d6                           	<unknown>
  405ee6: ff ff                        	<unknown>
  405ee8: da 00                        	fiaddl	(%rax)
  405eea: 00 00                        	addb	%al, (%rax)
  405eec: 00 45 0e                     	addb	%al, 14(%rbp)
  405eef: 10 86 02 43 0d 06            	adcb	%al, 101532418(%rsi)
  405ef5: 02 d1                        	addb	%cl, %dl
  405ef7: 0c 07                        	orb	$7, %al
  405ef9: 08 00                        	orb	%al, (%rax)
  405efb: 00 20                        	addb	%ah, (%rax)
  405efd: 00 00                        	addb	%al, (%rax)
  405eff: 00 08                        	addb	%cl, (%rax)
  405f01: 05 00 00 92 d7               	addl	$3616669696, %eax       # imm = 0xD7920000
  405f06: ff ff                        	<unknown>
  405f08: 13 00                        	adcl	(%rax), %eax
  405f0a: 00 00                        	addb	%al, (%rax)
  405f0c: 00 45 0e                     	addb	%al, 14(%rbp)
  405f0f: 10 86 02 43 0d 06            	adcb	%al, 101532418(%rsi)
  405f15: 4a 0c 07                     	orb	$7, %al
  405f18: 08 00                        	orb	%al, (%rax)
  405f1a: 00 00                        	addb	%al, (%rax)
  405f1c: 00 00                        	addb	%al, (%rax)
  405f1e: 00 00                        	addb	%al, (%rax)
  405f20: 1c 00                        	sbbb	$0, %al
  405f22: 00 00                        	addb	%al, (%rax)
  405f24: 2c 05                        	subb	$5, %al
  405f26: 00 00                        	addb	%al, (%rax)
  405f28: 24 e0                        	andb	$-32, %al
  405f2a: ff ff                        	<unknown>
  405f2c: 14 00                        	adcb	$0, %al
  405f2e: 00 00                        	addb	%al, (%rax)
  405f30: 00 45 0e                     	addb	%al, 14(%rbp)
  405f33: 10 86 02 43 0d 06            	adcb	%al, 101532418(%rsi)
  405f39: 4b 0c 07                     	orb	$7, %al
  405f3c: 08 00                        	orb	%al, (%rax)
  405f3e: 00 00                        	addb	%al, (%rax)
  405f40: 1c 00                        	sbbb	$0, %al
  405f42: 00 00                        	addb	%al, (%rax)
  405f44: 4c 05 00 00 61 d7            	addq	$-681508864, %rax       # imm = 0xD7610000
  405f4a: ff ff                        	<unknown>
  405f4c: 1e                           	<unknown>
  405f4d: 00 00                        	addb	%al, (%rax)
  405f4f: 00 00                        	addb	%al, (%rax)
  405f51: 45 0e                        	<unknown>
  405f53: 10 86 02 43 0d 06            	adcb	%al, 101532418(%rsi)
  405f59: 55                           	pushq	%rbp
  405f5a: 0c 07                        	orb	$7, %al
  405f5c: 08 00                        	orb	%al, (%rax)
  405f5e: 00 00                        	addb	%al, (%rax)
  405f60: 1c 00                        	sbbb	$0, %al
  405f62: 00 00                        	addb	%al, (%rax)
  405f64: 6c                           	insb	%dx, %es:(%rdi)
  405f65: 05 00 00 5f d7               	addl	$3613327360, %eax       # imm = 0xD75F0000
  405f6a: ff ff                        	<unknown>
  405f6c: 87 00                        	xchgl	%eax, (%rax)
  405f6e: 00 00                        	addb	%al, (%rax)
  405f70: 00 45 0e                     	addb	%al, 14(%rbp)
  405f73: 10 86 02 43 0d 06            	adcb	%al, 101532418(%rsi)
  405f79: 02 7e 0c                     	addb	12(%rsi), %bh
  405f7c: 07                           	<unknown>
  405f7d: 08 00                        	orb	%al, (%rax)
  405f7f: 00 24 00                     	addb	%ah, (%rax,%rax)
  405f82: 00 00                        	addb	%al, (%rax)
  405f84: 0c 05                        	orb	$5, %al
  405f86: 00 00                        	addb	%al, (%rax)
  405f88: c6 d7                        	<unknown>
  405f8a: ff ff                        	<unknown>
  405f8c: 5c                           	popq	%rsp
  405f8d: 00 00                        	addb	%al, (%rax)
  405f8f: 00 04 3e                     	addb	%al, (%rsi,%rdi)
  405f92: 02 00                        	addb	(%rax), %al
  405f94: 00 45 0e                     	addb	%al, 14(%rbp)
  405f97: 10 86 02 43 0d 06            	adcb	%al, 101532418(%rsi)
  405f9d: 47 8c 03                     	movw	%es, (%r11)
  405fa0: 83 04 02 4c                  	addl	$76, (%rdx,%rax)
  405fa4: 0c 07                        	orb	$7, %al
  405fa6: 08 00                        	orb	%al, (%rax)
  405fa8: 1c 00                        	sbbb	$0, %al
  405faa: 00 00                        	addb	%al, (%rax)
  405fac: b4 05                        	movb	$5, %ah
  405fae: 00 00                        	addb	%al, (%rax)
  405fb0: fa                           	cli
  405fb1: d7                           	xlatb
  405fb2: ff ff                        	<unknown>
  405fb4: 3b 00                        	cmpl	(%rax), %eax
  405fb6: 00 00                        	addb	%al, (%rax)
  405fb8: 00 45 0e                     	addb	%al, 14(%rbp)
  405fbb: 10 86 02 43 0d 06            	adcb	%al, 101532418(%rsi)
  405fc1: 72 0c                        	jb	0x405fcf <.eh_frame+0x5d7>
  405fc3: 07                           	<unknown>
  405fc4: 08 00                        	orb	%al, (%rax)
  405fc6: 00 00                        	addb	%al, (%rax)
  405fc8: 1c 00                        	sbbb	$0, %al
  405fca: 00 00                        	addb	%al, (%rax)
  405fcc: d4                           	<unknown>
  405fcd: 05 00 00 15 d8               	addl	$3625254912, %eax       # imm = 0xD8150000
  405fd2: ff ff                        	<unknown>
  405fd4: 96                           	xchgl	%esi, %eax
  405fd5: 00 00                        	addb	%al, (%rax)
  405fd7: 00 00                        	addb	%al, (%rax)
  405fd9: 45 0e                        	<unknown>
  405fdb: 10 86 02 43 0d 06            	adcb	%al, 101532418(%rsi)
  405fe1: 02 8d 0c 07 08 00            	addb	526092(%rbp), %cl
  405fe7: 00 1c 00                     	addb	%bl, (%rax,%rax)
  405fea: 00 00                        	addb	%al, (%rax)
  405fec: f4                           	hlt
  405fed: 05 00 00 8b d8               	addl	$3632988160, %eax       # imm = 0xD88B0000
  405ff2: ff ff                        	<unknown>
  405ff4: 28 00                        	subb	%al, (%rax)
  405ff6: 00 00                        	addb	%al, (%rax)
  405ff8: 00 45 0e                     	addb	%al, 14(%rbp)
  405ffb: 10 86 02 43 0d 06            	adcb	%al, 101532418(%rsi)
  406001: 5f                           	popq	%rdi
  406002: 0c 07                        	orb	$7, %al
  406004: 08 00                        	orb	%al, (%rax)
  406006: 00 00                        	addb	%al, (%rax)
  406008: 1c 00                        	sbbb	$0, %al
  40600a: 00 00                        	addb	%al, (%rax)
  40600c: 14 06                        	adcb	$6, %al
  40600e: 00 00                        	addb	%al, (%rax)
  406010: 93                           	xchgl	%ebx, %eax
  406011: d8 ff                        	fdivr	%st(7), %st
  406013: ff 28                        	ljmpl	*(%rax)
  406015: 00 00                        	addb	%al, (%rax)
  406017: 00 00                        	addb	%al, (%rax)
  406019: 45 0e                        	<unknown>
  40601b: 10 86 02 43 0d 06            	adcb	%al, 101532418(%rsi)
  406021: 5f                           	popq	%rdi
  406022: 0c 07                        	orb	$7, %al
  406024: 08 00                        	orb	%al, (%rax)
  406026: 00 00                        	addb	%al, (%rax)
  406028: 24 00                        	andb	$0, %al
  40602a: 00 00                        	addb	%al, (%rax)
  40602c: b4 05                        	movb	$5, %ah
  40602e: 00 00                        	addb	%al, (%rax)
  406030: 9b                           	wait
  406031: d8 ff                        	fdivr	%st(7), %st
  406033: ff 20                        	jmpq	*(%rax)
  406035: 01 00                        	addl	%eax, (%rax)
  406037: 00 04 a6                     	addb	%al, (%rsi,%riz,4)
  40603a: 01 00                        	addl	%eax, (%rax)
  40603c: 00 45 0e                     	addb	%al, 14(%rbp)
  40603f: 10 86 02 43 0d 06            	adcb	%al, 101532418(%rsi)
  406045: 45 83 03 03                  	addl	$3, (%r11)
  406049: 12 01                        	adcb	(%rcx), %al
  40604b: 0c 07                        	orb	$7, %al
  40604d: 08 00                        	orb	%al, (%rax)
  40604f: 00 1c 00                     	addb	%bl, (%rax,%rax)
  406052: 00 00                        	addb	%al, (%rax)
  406054: 5c                           	popq	%rsp
  406055: 06                           	<unknown>
  406056: 00 00                        	addb	%al, (%rax)
  406058: 93                           	xchgl	%ebx, %eax
  406059: d9 ff                        	fcos
  40605b: ff be 01 00 00 00            	<unknown>
  406061: 45 0e                        	<unknown>
  406063: 10 86 02 43 0d 06            	adcb	%al, 101532418(%rsi)
  406069: 03 b5 01 0c 07 08            	addl	134679553(%rbp), %esi
  40606f: 00 1c 00                     	addb	%bl, (%rax,%rax)
  406072: 00 00                        	addb	%al, (%rax)
  406074: 7c 06                        	jl	0x40607c <.eh_frame+0x684>
  406076: 00 00                        	addb	%al, (%rax)
  406078: 31 db                        	xorl	%ebx, %ebx
  40607a: ff ff                        	<unknown>
  40607c: 1e                           	<unknown>
  40607d: 00 00                        	addb	%al, (%rax)
  40607f: 00 00                        	addb	%al, (%rax)
  406081: 45 0e                        	<unknown>
  406083: 10 86 02 43 0d 06            	adcb	%al, 101532418(%rsi)
  406089: 55                           	pushq	%rbp
  40608a: 0c 07                        	orb	$7, %al
  40608c: 08 00                        	orb	%al, (%rax)
  40608e: 00 00                        	addb	%al, (%rax)
  406090: 24 00                        	andb	$0, %al
  406092: 00 00                        	addb	%al, (%rax)
  406094: 1c 06                        	sbbb	$6, %al
  406096: 00 00                        	addb	%al, (%rax)
  406098: 2f                           	<unknown>
  406099: db ff                        	<unknown>
  40609b: ff 57 02                     	callq	*2(%rdi)
  40609e: 00 00                        	addb	%al, (%rax)
  4060a0: 04 50                        	addb	$80, %al
  4060a2: 01 00                        	addl	%eax, (%rax)
  4060a4: 00 45 0e                     	addb	%al, 14(%rbp)
  4060a7: 10 86 02 43 0d 06            	adcb	%al, 101532418(%rsi)
  4060ad: 48 83 03 03                  	addq	$3, (%rbx)
  4060b1: 46 02 0c 07                  	addb	(%rdi,%r8), %r9b
  4060b5: 08 00                        	orb	%al, (%rax)
  4060b7: 00 1c 00                     	addb	%bl, (%rax,%rax)
  4060ba: 00 00                        	addb	%al, (%rax)
  4060bc: c4 06 00 00                  	<unknown>
  4060c0: 5e                           	popq	%rsi
  4060c1: dd ff                        	<unknown>
  4060c3: ff 17                        	callq	*(%rdi)
  4060c5: 00 00                        	addb	%al, (%rax)
  4060c7: 00 00                        	addb	%al, (%rax)
  4060c9: 45 0e                        	<unknown>
  4060cb: 10 86 02 43 0d 06            	adcb	%al, 101532418(%rsi)
  4060d1: 4e 0c 07                     	orb	$7, %al
  4060d4: 08 00                        	orb	%al, (%rax)
  4060d6: 00 00                        	addb	%al, (%rax)
  4060d8: 1c 00                        	sbbb	$0, %al
  4060da: 00 00                        	addb	%al, (%rax)
  4060dc: e4 06                        	inb	$6, %al
  4060de: 00 00                        	addb	%al, (%rax)
  4060e0: 55                           	pushq	%rbp
  4060e1: dd ff                        	<unknown>
  4060e3: ff 17                        	callq	*(%rdi)
  4060e5: 00 00                        	addb	%al, (%rax)
  4060e7: 00 00                        	addb	%al, (%rax)
  4060e9: 45 0e                        	<unknown>
  4060eb: 10 86 02 43 0d 06            	adcb	%al, 101532418(%rsi)
  4060f1: 4e 0c 07                     	orb	$7, %al
  4060f4: 08 00                        	orb	%al, (%rax)
  4060f6: 00 00                        	addb	%al, (%rax)
  4060f8: 1c 00                        	sbbb	$0, %al
  4060fa: 00 00                        	addb	%al, (%rax)
  4060fc: 04 07                        	addb	$7, %al
  4060fe: 00 00                        	addb	%al, (%rax)
  406100: 4c dd ff                     	<unknown>
  406103: ff 9a 00 00 00 00            	lcalll	*(%rdx)
  406109: 45 0e                        	<unknown>
  40610b: 10 86 02 43 0d 06            	adcb	%al, 101532418(%rsi)
  406111: 02 91 0c 07 08 00            	addb	526092(%rcx), %dl
  406117: 00 1c 00                     	addb	%bl, (%rax,%rax)
  40611a: 00 00                        	addb	%al, (%rax)
  40611c: 24 07                        	andb	$7, %al
  40611e: 00 00                        	addb	%al, (%rax)
  406120: c6 dd                        	<unknown>
  406122: ff ff                        	<unknown>
  406124: 4d 00 00                     	addb	%r8b, (%r8)
  406127: 00 00                        	addb	%al, (%rax)
  406129: 45 0e                        	<unknown>
  40612b: 10 86 02 43 0d 06            	adcb	%al, 101532418(%rsi)
  406131: 02 44 0c 07                  	addb	7(%rsp,%rcx), %al
  406135: 08 00                        	orb	%al, (%rax)
  406137: 00 1c 00                     	addb	%bl, (%rax,%rax)
  40613a: 00 00                        	addb	%al, (%rax)
  40613c: 44 07                        	<unknown>
  40613e: 00 00                        	addb	%al, (%rax)
  406140: f3 dd ff                     	<unknown>
  406143: ff 19                        	lcalll	*(%rcx)
  406145: 00 00                        	addb	%al, (%rax)
  406147: 00 00                        	addb	%al, (%rax)
  406149: 45 0e                        	<unknown>
  40614b: 10 86 02 43 0d 06            	adcb	%al, 101532418(%rsi)
  406151: 50                           	pushq	%rax
  406152: 0c 07                        	orb	$7, %al
  406154: 08 00                        	orb	%al, (%rax)
  406156: 00 00                        	addb	%al, (%rax)
  406158: 44 00 00                     	addb	%r8b, (%rax)
  40615b: 00 64 07 00                  	addb	%ah, (%rdi,%rax)
  40615f: 00 00                        	addb	%al, (%rax)
  406161: de ff                        	fdivrp	%st, %st(7)
  406163: ff 65 00                     	jmpq	*(%rbp)
  406166: 00 00                        	addb	%al, (%rax)
  406168: 00 46 0e                     	addb	%al, 14(%rsi)
  40616b: 10 8f 02 49 0e 18            	adcb	%cl, 403589378(%rdi)
  406171: 8e 03                        	movw	(%rbx), %es
  406173: 45 0e                        	<unknown>
  406175: 20 8d 04 45 0e 28            	andb	%cl, 672023812(%rbp)
  40617b: 8c 05 44 0e 30 86            	movw	%es, -2043670972(%rip)  # 0xffffffff86706fc5 <_ZSt3cin+0xffffffff862fed65>
  406181: 06                           	<unknown>
  406182: 48 0e                        	<unknown>
  406184: 38 83 07 47 0e 40            	cmpb	%al, 1074677511(%rbx)
  40618a: 6e                           	outsb	(%rsi), %dx
  40618b: 0e                           	<unknown>
  40618c: 38 41 0e                     	cmpb	%al, 14(%rcx)
  40618f: 30 41 0e                     	xorb	%al, 14(%rcx)
  406192: 28 42 0e                     	subb	%al, 14(%rdx)
  406195: 20 42 0e                     	andb	%al, 14(%rdx)
  406198: 18 42 0e                     	sbbb	%al, 14(%rdx)
  40619b: 10 42 0e                     	adcb	%al, 14(%rdx)
  40619e: 08 00                        	orb	%al, (%rax)
  4061a0: 10 00                        	adcb	%al, (%rax)
  4061a2: 00 00                        	addb	%al, (%rax)
  4061a4: ac                           	lodsb	(%rsi), %al
  4061a5: 07                           	<unknown>
  4061a6: 00 00                        	addb	%al, (%rax)
  4061a8: 28 de                        	subb	%bl, %dh
  4061aa: ff ff                        	<unknown>
  4061ac: 05 00 00 00 00               	addl	$0, %eax
  4061b1: 00 00                        	addb	%al, (%rax)
  4061b3: 00 00                        	addb	%al, (%rax)
  4061b5: 00 00                        	addb	%al, (%rax)
  4061b7: 00                           	<unknown>

00000000004061b8 <.gcc_except_table>:
  4061b8: ff ff                        	<unknown>
  4061ba: 01 0f                        	addl	%ecx, (%rdi)
  4061bc: 3e 05 95 01 00 51            	addl	$1358954901, %eax       # imm = 0x51000195
  4061c2: 05 80 01 00 ae               	addl	$2919235968, %eax       # imm = 0xAE000180
  4061c7: 01 05 00 00 ff ff            	addl	%eax, -65536(%rip)      # 0x3f61cd
  4061cd: 01 00                        	addl	%eax, (%rax)
  4061cf: ff ff                        	<unknown>
  4061d1: 01 0c 18                     	addl	%ecx, (%rax,%rbx)
  4061d4: 05 00 00 2a 05               	addl	$86638592, %eax         # imm = 0x52A0000
  4061d9: 34 00                        	xorb	$0, %al
  4061db: 4e 05 00 00 ff ff            	addq	$-65536, %rax           # imm = 0xFFFF0000
  4061e1: 01 0e                        	addl	%ecx, (%rsi)
  4061e3: 25 35 00 00 74               	andl	$1946157109, %eax       # imm = 0x74000035
  4061e8: 43 e7 01                     	outl	%eax, $1
  4061eb: 00 80 02 05 00 00            	addb	%al, 1282(%rax)
  4061f1: ff ff                        	<unknown>
  4061f3: 01 10                        	addl	%edx, (%rax)
  4061f5: 1f                           	<unknown>
  4061f6: c3                           	retq
  4061f7: 02 00                        	addb	(%rax), %al
  4061f9: 00 f0                        	addb	%dh, %al
  4061fb: 02 4b a7                     	addb	-89(%rbx), %cl
  4061fe: 04 00                        	addb	$0, %al
  406200: e3 03                        	jrcxz	0x406205 <.gcc_except_table+0x4d>
  406202: 65 00 00                     	addb	%al, %gs:(%rax)

0000000000407d18 <.init_array>:
  407d18: d0 24 40                     	shlb	(%rax,%rax,2)
  407d1b: 00 00                        	addb	%al, (%rax)
  407d1d: 00 00                        	addb	%al, (%rax)
  407d1f: 00 db                        	addb	%bl, %bl
  407d21: 29 40 00                     	subl	%eax, (%rax)
  407d24: 00 00                        	addb	%al, (%rax)
  407d26: 00 00                        	addb	%al, (%rax)
  407d28: 33 3f                        	xorl	(%rdi), %edi
  407d2a: 40 00 00                     	addb	%al, (%rax)
  407d2d: 00 00                        	addb	%al, (%rax)
  407d2f: 00                           	<unknown>


0000000000407d30 <.fini_array>:
  407d30: a0                           	<unknown>
  407d31: 24 40                        	andb	$64, %al
  407d33: 00 00                        	addb	%al, (%rax)
  407d35: 00 00                        	addb	%al, (%rax)
  407d37: 00                           	<unknown>


0000000000407d38 <.data.rel.ro>:
		...
  407d40: b0 7d                        	movb	$125, %al
  407d42: 40 00 00                     	addb	%al, (%rax)
  407d45: 00 00                        	addb	%al, (%rax)
  407d47: 00 38                        	addb	%bh, (%rax)
  407d49: 29 40 00                     	subl	%eax, (%rax)
  407d4c: 00 00                        	addb	%al, (%rax)
  407d4e: 00 00                        	addb	%al, (%rax)
  407d50: 0c 29                        	orb	$41, %al
  407d52: 40 00 00                     	addb	%al, (%rax)
  407d55: 00 00                        	addb	%al, (%rax)
  407d57: 00 22                        	addb	%ah, (%rdx)
  407d59: 29 40 00                     	subl	%eax, (%rax)
		...
  407d68: c0 7d 40 00                  	sarb	$0, 64(%rbp)
  407d6c: 00 00                        	addb	%al, (%rax)
  407d6e: 00 00                        	addb	%al, (%rax)
  407d70: ee                           	outb	%al, %dx
  407d71: 33 40 00                     	xorl	(%rax), %eax
  407d74: 00 00                        	addb	%al, (%rax)
  407d76: 00 00                        	addb	%al, (%rax)
  407d78: 62                           	<unknown>
  407d79: 31 40 00                     	xorl	%eax, (%rax)
  407d7c: 00 00                        	addb	%al, (%rax)
  407d7e: 00 00                        	addb	%al, (%rax)
  407d80: 7a 32                        	jp	0x407db4 <.data.rel.ro+0x7c>
  407d82: 40 00 00                     	addb	%al, (%rax)
		...
  407d8d: 00 00                        	addb	%al, (%rax)
  407d8f: 00 d8                        	addb	%bl, %al
  407d91: 7d 40                        	jge	0x407dd3 <.data.rel.ro+0x9b>
  407d93: 00 00                        	addb	%al, (%rax)
  407d95: 00 00                        	addb	%al, (%rax)
  407d97: 00 96 36 40 00 00            	addb	%dl, 16438(%rsi)
  407d9d: 00 00                        	addb	%al, (%rax)
  407d9f: 00 36                        	addb	%dh, (%rsi)
  407da1: 35 40 00 00 00               	xorl	$64, %eax
  407da6: 00 00                        	addb	%al, (%rax)
  407da8: bc 35 40 00 00               	movl	$16437, %esp            # imm = 0x4035
		...
  407db5: 00 00                        	addb	%al, (%rax)
  407db7: 00 a8 42 40 00 00            	addb	%ch, 16450(%rax)
		...
  407dc5: 00 00                        	addb	%al, (%rax)
  407dc7: 00 b8 42 40 00 00            	addb	%bh, 16450(%rax)
  407dcd: 00 00                        	addb	%al, (%rax)
  407dcf: 00 b0 7d 40 00 00            	addb	%dh, 16509(%rax)
		...
  407ddd: 00 00                        	addb	%al, (%rax)
  407ddf: 00 c6                        	addb	%al, %dh
  407de1: 42 40                        	<unknown>
  407de3: 00 00                        	addb	%al, (%rax)
  407de5: 00 00                        	addb	%al, (%rax)
  407de7: 00 b0 7d 40 00 00            	addb	%dh, 16509(%rax)
  407ded: 00 00                        	addb	%al, (%rax)
  407def: 00                           	<unknown>


0000000000407df0 <.dynamic>:
  407df0: 01 00                        	addl	%eax, (%rax)
  407df2: 00 00                        	addb	%al, (%rax)
  407df4: 00 00                        	addb	%al, (%rax)
  407df6: 00 00                        	addb	%al, (%rax)
  407df8: 01 00                        	addl	%eax, (%rax)
  407dfa: 00 00                        	addb	%al, (%rax)
  407dfc: 00 00                        	addb	%al, (%rax)
  407dfe: 00 00                        	addb	%al, (%rax)
  407e00: 01 00                        	addl	%eax, (%rax)
  407e02: 00 00                        	addb	%al, (%rax)
  407e04: 00 00                        	addb	%al, (%rax)
  407e06: 00 00                        	addb	%al, (%rax)
  407e08: d5                           	<unknown>
  407e09: 04 00                        	addb	$0, %al
  407e0b: 00 00                        	addb	%al, (%rax)
  407e0d: 00 00                        	addb	%al, (%rax)
  407e0f: 00 01                        	addb	%al, (%rcx)
  407e11: 00 00                        	addb	%al, (%rax)
  407e13: 00 00                        	addb	%al, (%rax)
  407e15: 00 00                        	addb	%al, (%rax)
  407e17: 00 f2                        	addb	%dh, %dl
  407e19: 04 00                        	addb	$0, %al
  407e1b: 00 00                        	addb	%al, (%rax)
  407e1d: 00 00                        	addb	%al, (%rax)
  407e1f: 00 0c 00                     	addb	%cl, (%rax,%rax)
  407e22: 00 00                        	addb	%al, (%rax)
  407e24: 00 00                        	addb	%al, (%rax)
  407e26: 00 00                        	addb	%al, (%rax)
  407e28: 00 20                        	addb	%ah, (%rax)
  407e2a: 40 00 00                     	addb	%al, (%rax)
  407e2d: 00 00                        	addb	%al, (%rax)
  407e2f: 00 0d 00 00 00 00            	addb	%cl, (%rip)             # 0x407e35 <.dynamic+0x45>
  407e35: 00 00                        	addb	%al, (%rax)
  407e37: 00 d8                        	addb	%bl, %al
  407e39: 3f                           	<unknown>
  407e3a: 40 00 00                     	addb	%al, (%rax)
  407e3d: 00 00                        	addb	%al, (%rax)
  407e3f: 00 19                        	addb	%bl, (%rcx)
  407e41: 00 00                        	addb	%al, (%rax)
  407e43: 00 00                        	addb	%al, (%rax)
  407e45: 00 00                        	addb	%al, (%rax)
  407e47: 00 18                        	addb	%bl, (%rax)
  407e49: 7d 40                        	jge	0x407e8b <.dynamic+0x9b>
  407e4b: 00 00                        	addb	%al, (%rax)
  407e4d: 00 00                        	addb	%al, (%rax)
  407e4f: 00 1b                        	addb	%bl, (%rbx)
  407e51: 00 00                        	addb	%al, (%rax)
  407e53: 00 00                        	addb	%al, (%rax)
  407e55: 00 00                        	addb	%al, (%rax)
  407e57: 00 18                        	addb	%bl, (%rax)
  407e59: 00 00                        	addb	%al, (%rax)
  407e5b: 00 00                        	addb	%al, (%rax)
  407e5d: 00 00                        	addb	%al, (%rax)
  407e5f: 00 1a                        	addb	%bl, (%rdx)
  407e61: 00 00                        	addb	%al, (%rax)
  407e63: 00 00                        	addb	%al, (%rax)
  407e65: 00 00                        	addb	%al, (%rax)
  407e67: 00 30                        	addb	%dh, (%rax)
  407e69: 7d 40                        	jge	0x407eab <.dynamic+0xbb>
  407e6b: 00 00                        	addb	%al, (%rax)
  407e6d: 00 00                        	addb	%al, (%rax)
  407e6f: 00 1c 00                     	addb	%bl, (%rax,%rax)
  407e72: 00 00                        	addb	%al, (%rax)
  407e74: 00 00                        	addb	%al, (%rax)
  407e76: 00 00                        	addb	%al, (%rax)
  407e78: 08 00                        	orb	%al, (%rax)
  407e7a: 00 00                        	addb	%al, (%rax)
  407e7c: 00 00                        	addb	%al, (%rax)
  407e7e: 00 00                        	addb	%al, (%rax)
  407e80: f5                           	cmc
  407e81: fe ff                        	<unknown>
  407e83: 6f                           	outsl	(%rsi), %dx
  407e84: 00 00                        	addb	%al, (%rax)
  407e86: 00 00                        	addb	%al, (%rax)
  407e88: a0 03 40 00 00 00 00 00 05   	movabsb	360287970189656067, %al
  407e91: 00 00                        	addb	%al, (%rax)
  407e93: 00 00                        	addb	%al, (%rax)
  407e95: 00 00                        	addb	%al, (%rax)
  407e97: 00 88 07 40 00 00            	addb	%cl, 16391(%rax)
  407e9d: 00 00                        	addb	%al, (%rax)
  407e9f: 00 06                        	addb	%al, (%rsi)
  407ea1: 00 00                        	addb	%al, (%rax)
  407ea3: 00 00                        	addb	%al, (%rax)
  407ea5: 00 00                        	addb	%al, (%rax)
  407ea7: 00 c8                        	addb	%cl, %al
  407ea9: 03 40 00                     	addl	(%rax), %eax
  407eac: 00 00                        	addb	%al, (%rax)
  407eae: 00 00                        	addb	%al, (%rax)
  407eb0: 0a 00                        	orb	(%rax), %al
  407eb2: 00 00                        	addb	%al, (%rax)
  407eb4: 00 00                        	addb	%al, (%rax)
  407eb6: 00 00                        	addb	%al, (%rax)
  407eb8: 95                           	xchgl	%ebp, %eax
  407eb9: 05 00 00 00 00               	addl	$0, %eax
  407ebe: 00 00                        	addb	%al, (%rax)
  407ec0: 0b 00                        	orl	(%rax), %eax
  407ec2: 00 00                        	addb	%al, (%rax)
  407ec4: 00 00                        	addb	%al, (%rax)
  407ec6: 00 00                        	addb	%al, (%rax)
  407ec8: 18 00                        	sbbb	%al, (%rax)
  407eca: 00 00                        	addb	%al, (%rax)
  407ecc: 00 00                        	addb	%al, (%rax)
  407ece: 00 00                        	addb	%al, (%rax)
  407ed0: 15 00 00 00 00               	adcl	$0, %eax
		...
  407edd: 00 00                        	addb	%al, (%rax)
  407edf: 00 03                        	addb	%al, (%rbx)
		...
  407ee9: 80 40 00 00                  	addb	$0, (%rax)
  407eed: 00 00                        	addb	%al, (%rax)
  407eef: 00 02                        	addb	%al, (%rdx)
  407ef1: 00 00                        	addb	%al, (%rax)
  407ef3: 00 00                        	addb	%al, (%rax)
  407ef5: 00 00                        	addb	%al, (%rax)
  407ef7: 00 d0                        	addb	%dl, %al
  407ef9: 02 00                        	addb	(%rax), %al
  407efb: 00 00                        	addb	%al, (%rax)
  407efd: 00 00                        	addb	%al, (%rax)
  407eff: 00 14 00                     	addb	%dl, (%rax,%rax)
  407f02: 00 00                        	addb	%al, (%rax)
  407f04: 00 00                        	addb	%al, (%rax)
  407f06: 00 00                        	addb	%al, (%rax)
  407f08: 07                           	<unknown>
  407f09: 00 00                        	addb	%al, (%rax)
  407f0b: 00 00                        	addb	%al, (%rax)
  407f0d: 00 00                        	addb	%al, (%rax)
  407f0f: 00 17                        	addb	%dl, (%rdi)
  407f11: 00 00                        	addb	%al, (%rax)
  407f13: 00 00                        	addb	%al, (%rax)
  407f15: 00 00                        	addb	%al, (%rax)
  407f17: 00 10                        	addb	%dl, (%rax)
  407f19: 0f 40 00                     	cmovol	(%rax), %eax
  407f1c: 00 00                        	addb	%al, (%rax)
  407f1e: 00 00                        	addb	%al, (%rax)
  407f20: 07                           	<unknown>
  407f21: 00 00                        	addb	%al, (%rax)
  407f23: 00 00                        	addb	%al, (%rax)
  407f25: 00 00                        	addb	%al, (%rax)
  407f27: 00 20                        	addb	%ah, (%rax)
  407f29: 0e                           	<unknown>
  407f2a: 40 00 00                     	addb	%al, (%rax)
  407f2d: 00 00                        	addb	%al, (%rax)
  407f2f: 00 08                        	addb	%cl, (%rax)
  407f31: 00 00                        	addb	%al, (%rax)
  407f33: 00 00                        	addb	%al, (%rax)
  407f35: 00 00                        	addb	%al, (%rax)
  407f37: 00 f0                        	addb	%dh, %al
  407f39: 00 00                        	addb	%al, (%rax)
  407f3b: 00 00                        	addb	%al, (%rax)
  407f3d: 00 00                        	addb	%al, (%rax)
  407f3f: 00 09                        	addb	%cl, (%rcx)
  407f41: 00 00                        	addb	%al, (%rax)
  407f43: 00 00                        	addb	%al, (%rax)
  407f45: 00 00                        	addb	%al, (%rax)
  407f47: 00 18                        	addb	%bl, (%rax)
  407f49: 00 00                        	addb	%al, (%rax)
  407f4b: 00 00                        	addb	%al, (%rax)
  407f4d: 00 00                        	addb	%al, (%rax)
  407f4f: 00 fe                        	addb	%bh, %dh
  407f51: ff ff                        	<unknown>
  407f53: 6f                           	outsl	(%rsi), %dx
  407f54: 00 00                        	addb	%al, (%rax)
  407f56: 00 00                        	addb	%al, (%rax)
  407f58: 70 0d                        	jo	0x407f67 <.dynamic+0x177>
  407f5a: 40 00 00                     	addb	%al, (%rax)
  407f5d: 00 00                        	addb	%al, (%rax)
  407f5f: 00 ff                        	addb	%bh, %bh
  407f61: ff ff                        	<unknown>
  407f63: 6f                           	outsl	(%rsi), %dx
  407f64: 00 00                        	addb	%al, (%rax)
  407f66: 00 00                        	addb	%al, (%rax)
  407f68: 03 00                        	addl	(%rax), %eax
  407f6a: 00 00                        	addb	%al, (%rax)
  407f6c: 00 00                        	addb	%al, (%rax)
  407f6e: 00 00                        	addb	%al, (%rax)
  407f70: f0                           	lock
  407f71: ff ff                        	<unknown>
  407f73: 6f                           	outsl	(%rsi), %dx
  407f74: 00 00                        	addb	%al, (%rax)
  407f76: 00 00                        	addb	%al, (%rax)
  407f78: 1e                           	<unknown>
  407f79: 0d 40 00 00 00               	orl	$64, %eax
		...
  407fde: 00 00                        	addb	%al, (%rax)

0000000000407fe0 <.got>:
		...


0000000000408000 <.got.plt>:
  408000: f0                           	lock
  408001: 7d 40                        	jge	0x408043 <.got.plt+0x43>
		...
  408017: 00 30                        	addb	%dh, (%rax)
  408019: 20 40 00                     	andb	%al, (%rax)
  40801c: 00 00                        	addb	%al, (%rax)
  40801e: 00 00                        	addb	%al, (%rax)
  408020: 40 20 40 00                  	andb	%al, (%rax)
  408024: 00 00                        	addb	%al, (%rax)
  408026: 00 00                        	addb	%al, (%rax)
  408028: 50                           	pushq	%rax
  408029: 20 40 00                     	andb	%al, (%rax)
  40802c: 00 00                        	addb	%al, (%rax)
  40802e: 00 00                        	addb	%al, (%rax)
  408030: 60                           	<unknown>
  408031: 20 40 00                     	andb	%al, (%rax)
  408034: 00 00                        	addb	%al, (%rax)
  408036: 00 00                        	addb	%al, (%rax)
  408038: 70 20                        	jo	0x40805a <.got.plt+0x5a>
  40803a: 40 00 00                     	addb	%al, (%rax)
  40803d: 00 00                        	addb	%al, (%rax)
  40803f: 00 80 20 40 00 00            	addb	%al, 16416(%rax)
  408045: 00 00                        	addb	%al, (%rax)
  408047: 00 90 20 40 00 00            	addb	%dl, 16416(%rax)
  40804d: 00 00                        	addb	%al, (%rax)
  40804f: 00 a0 20 40 00 00            	addb	%ah, 16416(%rax)
  408055: 00 00                        	addb	%al, (%rax)
  408057: 00 b0 20 40 00 00            	addb	%dh, 16416(%rax)
  40805d: 00 00                        	addb	%al, (%rax)
  40805f: 00 c0                        	addb	%al, %al
  408061: 20 40 00                     	andb	%al, (%rax)
  408064: 00 00                        	addb	%al, (%rax)
  408066: 00 00                        	addb	%al, (%rax)
  408068: d0 20                        	shlb	(%rax)
  40806a: 40 00 00                     	addb	%al, (%rax)
  40806d: 00 00                        	addb	%al, (%rax)
  40806f: 00 e0                        	addb	%ah, %al
  408071: 20 40 00                     	andb	%al, (%rax)
  408074: 00 00                        	addb	%al, (%rax)
  408076: 00 00                        	addb	%al, (%rax)
  408078: f0                           	lock
  408079: 20 40 00                     	andb	%al, (%rax)
  40807c: 00 00                        	addb	%al, (%rax)
  40807e: 00 00                        	addb	%al, (%rax)
  408080: 00 21                        	addb	%ah, (%rcx)
  408082: 40 00 00                     	addb	%al, (%rax)
  408085: 00 00                        	addb	%al, (%rax)
  408087: 00 10                        	addb	%dl, (%rax)
  408089: 21 40 00                     	andl	%eax, (%rax)
  40808c: 00 00                        	addb	%al, (%rax)
  40808e: 00 00                        	addb	%al, (%rax)
  408090: 20 21                        	andb	%ah, (%rcx)
  408092: 40 00 00                     	addb	%al, (%rax)
  408095: 00 00                        	addb	%al, (%rax)
  408097: 00 30                        	addb	%dh, (%rax)
  408099: 21 40 00                     	andl	%eax, (%rax)
  40809c: 00 00                        	addb	%al, (%rax)
  40809e: 00 00                        	addb	%al, (%rax)
  4080a0: 40 21 40 00                  	andl	%eax, (%rax)
  4080a4: 00 00                        	addb	%al, (%rax)
  4080a6: 00 00                        	addb	%al, (%rax)
  4080a8: 50                           	pushq	%rax
  4080a9: 21 40 00                     	andl	%eax, (%rax)
  4080ac: 00 00                        	addb	%al, (%rax)
  4080ae: 00 00                        	addb	%al, (%rax)
  4080b0: 60                           	<unknown>
  4080b1: 21 40 00                     	andl	%eax, (%rax)
  4080b4: 00 00                        	addb	%al, (%rax)
  4080b6: 00 00                        	addb	%al, (%rax)
  4080b8: 70 21                        	jo	0x4080db <.got.plt+0xdb>
  4080ba: 40 00 00                     	addb	%al, (%rax)
  4080bd: 00 00                        	addb	%al, (%rax)
  4080bf: 00 80 21 40 00 00            	addb	%al, 16417(%rax)
  4080c5: 00 00                        	addb	%al, (%rax)
  4080c7: 00 90 21 40 00 00            	addb	%dl, 16417(%rax)
  4080cd: 00 00                        	addb	%al, (%rax)
  4080cf: 00 a0 21 40 00 00            	addb	%ah, 16417(%rax)
  4080d5: 00 00                        	addb	%al, (%rax)
  4080d7: 00 b0 21 40 00 00            	addb	%dh, 16417(%rax)
  4080dd: 00 00                        	addb	%al, (%rax)
  4080df: 00 c0                        	addb	%al, %al
  4080e1: 21 40 00                     	andl	%eax, (%rax)
  4080e4: 00 00                        	addb	%al, (%rax)
  4080e6: 00 00                        	addb	%al, (%rax)
  4080e8: d0 21                        	shlb	(%rcx)
  4080ea: 40 00 00                     	addb	%al, (%rax)
  4080ed: 00 00                        	addb	%al, (%rax)
  4080ef: 00 e0                        	addb	%ah, %al
  4080f1: 21 40 00                     	andl	%eax, (%rax)
  4080f4: 00 00                        	addb	%al, (%rax)
  4080f6: 00 00                        	addb	%al, (%rax)
  4080f8: f0                           	lock
  4080f9: 21 40 00                     	andl	%eax, (%rax)
  4080fc: 00 00                        	addb	%al, (%rax)
  4080fe: 00 00                        	addb	%al, (%rax)
  408100: 00 22                        	addb	%ah, (%rdx)
  408102: 40 00 00                     	addb	%al, (%rax)
  408105: 00 00                        	addb	%al, (%rax)
  408107: 00                           	<unknown>


0000000000408108 <.data>:
		...


0000000000408140 <_ZSt4cout>:
...

0000000000408260 <_ZSt3cin>:
...


0000000000000000 <.comment>:
       0: 47 43                        	<unknown>
       2: 43 3a 20                     	cmpb	(%r8), %spl
       5: 28 55 62                     	subb	%dl, 98(%rbp)
       8: 75 6e                        	jne	0x78 <.comment+0x78>
       a: 74 75                        	je	0x81 <.comment+0x81>
       c: 20 39                        	andb	%bh, (%rcx)
       e: 2e 34 2e                     	xorb	$46, %al
      11: 30 2d 31 75 62 75            	xorb	%ch, 1969386801(%rip)   # 0x75627548 <_ZSt3cin+0x7521f2e8>
      17: 6e                           	outsb	(%rsi), %dx
      18: 74 75                        	je	0x8f <.comment+0x8f>
      1a: 31 7e 32                     	xorl	%edi, 50(%rsi)
      1d: 30 2e                        	xorb	%ch, (%rsi)
      1f: 30 34 2e                     	xorb	%dh, (%rsi,%rbp)
      22: 31 29                        	xorl	%ebp, (%rcx)
      24: 20 39                        	andb	%bh, (%rcx)
      26: 2e 34 2e                     	xorb	$46, %al
      29: 30 00                        	xorb	%al, (%rax)

0000000000000000 <.shstrtab>:
       0: 00 2e                        	addb	%ch, (%rsi)
       2: 73 68                        	jae	0x6c <.shstrtab+0x6c>
       4: 73 74                        	jae	0x7a <.shstrtab+0x7a>
       6: 72 74                        	jb	0x7c <.shstrtab+0x7c>
       8: 61                           	<unknown>
       9: 62 00 2e 69                  	<unknown>
       d: 6e                           	outsb	(%rsi), %dx
       e: 74 65                        	je	0x75 <.shstrtab+0x75>
      10: 72 70                        	jb	0x82 <.shstrtab+0x82>
      12: 00 2e                        	addb	%ch, (%rsi)
      14: 6e                           	outsb	(%rsi), %dx
      15: 6f                           	outsl	(%rsi), %dx
      16: 74 65                        	je	0x7d <.shstrtab+0x7d>
      18: 2e 67 6e                     	outsb	%cs:(%esi), %dx
      1b: 75 2e                        	jne	0x4b <.shstrtab+0x4b>
      1d: 70 72                        	jo	0x91 <.shstrtab+0x91>
      1f: 6f                           	outsl	(%rsi), %dx
      20: 70 65                        	jo	0x87 <.shstrtab+0x87>
      22: 72 74                        	jb	0x98 <.shstrtab+0x98>
      24: 79 00                        	jns	0x26 <.shstrtab+0x26>
      26: 2e 6e                        	outsb	%cs:(%rsi), %dx
      28: 6f                           	outsl	(%rsi), %dx
      29: 74 65                        	je	0x90 <.shstrtab+0x90>
      2b: 2e 67 6e                     	outsb	%cs:(%esi), %dx
      2e: 75 2e                        	jne	0x5e <.shstrtab+0x5e>
      30: 62                           	<unknown>
      31: 75 69                        	jne	0x9c <.shstrtab+0x9c>
      33: 6c                           	insb	%dx, %es:(%rdi)
      34: 64 2d 69 64 00 2e            	subl	$771777641, %eax        # imm = 0x2E006469
      3a: 6e                           	outsb	(%rsi), %dx
      3b: 6f                           	outsl	(%rsi), %dx
      3c: 74 65                        	je	0xa3 <.shstrtab+0xa3>
      3e: 2e 41 42                     	<unknown>
      41: 49 2d 74 61 67 00            	subq	$6775156, %rax          # imm = 0x676174
      47: 2e 67 6e                     	outsb	%cs:(%esi), %dx
      4a: 75 2e                        	jne	0x7a <.shstrtab+0x7a>
      4c: 68 61 73 68 00               	pushq	$6845281                # imm = 0x687361
      51: 2e 64 79 6e                  	jns	0xc3 <.shstrtab+0xc3>
      55: 73 79                        	jae	0xd0 <.shstrtab+0xd0>
      57: 6d                           	insl	%dx, %es:(%rdi)
      58: 00 2e                        	addb	%ch, (%rsi)
      5a: 64 79 6e                     	jns	0xcb <.shstrtab+0xcb>
      5d: 73 74                        	jae	0xd3 <.shstrtab+0xd3>
      5f: 72 00                        	jb	0x61 <.shstrtab+0x61>
      61: 2e 67 6e                     	outsb	%cs:(%esi), %dx
      64: 75 2e                        	jne	0x94 <.shstrtab+0x94>
      66: 76 65                        	jbe	0xcd <.shstrtab+0xcd>
      68: 72 73                        	jb	0xdd <.shstrtab+0xdd>
      6a: 69 6f 6e 00 2e 67 6e         	imull	$1852255744, 110(%rdi), %ebp # imm = 0x6E672E00
      71: 75 2e                        	jne	0xa1 <.shstrtab+0xa1>
      73: 76 65                        	jbe	0xda <.shstrtab+0xda>
      75: 72 73                        	jb	0xea <.shstrtab+0xea>
      77: 69 6f 6e 5f 72 00 2e         	imull	$771781215, 110(%rdi), %ebp # imm = 0x2E00725F
      7e: 72 65                        	jb	0xe5 <.shstrtab+0xe5>
      80: 6c                           	insb	%dx, %es:(%rdi)
      81: 61                           	<unknown>
      82: 2e 64 79 6e                  	jns	0xf4 <.shstrtab+0xf4>
      86: 00 2e                        	addb	%ch, (%rsi)
      88: 72 65                        	jb	0xef <.shstrtab+0xef>
      8a: 6c                           	insb	%dx, %es:(%rdi)
      8b: 61                           	<unknown>
      8c: 2e 70 6c                     	jo	0xfb <.shstrtab+0xfb>
      8f: 74 00                        	je	0x91 <.shstrtab+0x91>
      91: 2e 69 6e 69 74 00 2e 70      	imull	$1882062964, %cs:105(%rsi), %ebp # imm = 0x702E0074
      99: 6c                           	insb	%dx, %es:(%rdi)
      9a: 74 2e                        	je	0xca <.shstrtab+0xca>
      9c: 73 65                        	jae	0x103 <.shstrtab+0x103>
      9e: 63 00                        	movslq	(%rax), %eax
      a0: 2e 74 65                     	je	0x108 <.shstrtab+0x108>
      a3: 78 74                        	js	0x119 <.shstrtab+0x119>
      a5: 00 2e                        	addb	%ch, (%rsi)
      a7: 66 69 6e 69 00 2e            	imulw	$11776, 105(%rsi), %bp  # imm = 0x2E00
      ad: 72 6f                        	jb	0x11e <.shstrtab+0x11e>
      af: 64 61                        	<unknown>
      b1: 74 61                        	je	0x114 <.shstrtab+0x114>
      b3: 00 2e                        	addb	%ch, (%rsi)
      b5: 65 68 5f 66 72 61            	pushq	$1634887263             # imm = 0x6172665F
      bb: 6d                           	insl	%dx, %es:(%rdi)
      bc: 65 5f                        	popq	%rdi
      be: 68 64 72 00 2e               	pushq	$771781220              # imm = 0x2E007264
      c3: 65 68 5f 66 72 61            	pushq	$1634887263             # imm = 0x6172665F
      c9: 6d                           	insl	%dx, %es:(%rdi)
      ca: 65 00 2e                     	addb	%ch, %gs:(%rsi)
      cd: 67 63 63 5f                  	movslq	95(%ebx), %esp
      d1: 65 78 63                     	js	0x137 <.shstrtab+0x137>
      d4: 65 70 74                     	jo	0x14b <.shstrtab+0x14b>
      d7: 5f                           	popq	%rdi
      d8: 74 61                        	je	0x13b <.shstrtab+0x13b>
      da: 62                           	<unknown>
      db: 6c                           	insb	%dx, %es:(%rdi)
      dc: 65 00 2e                     	addb	%ch, %gs:(%rsi)
      df: 69 6e 69 74 5f 61 72         	imull	$1918984052, 105(%rsi), %ebp # imm = 0x72615F74
      e6: 72 61                        	jb	0x149 <.shstrtab+0x149>
      e8: 79 00                        	jns	0xea <.shstrtab+0xea>
      ea: 2e 66 69 6e 69 5f 61         	imulw	$24927, %cs:105(%rsi), %bp # imm = 0x615F
      f1: 72 72                        	jb	0x165 <.shstrtab+0x165>
      f3: 61                           	<unknown>
      f4: 79 00                        	jns	0xf6 <.shstrtab+0xf6>
      f6: 2e 64 61                     	<unknown>
      f9: 74 61                        	je	0x15c <.shstrtab+0x15c>
      fb: 2e 72 65                     	jb	0x163 <.shstrtab+0x163>
      fe: 6c                           	insb	%dx, %es:(%rdi)
      ff: 2e 72 6f                     	jb	0x171 <.shstrtab+0x171>
     102: 00 2e                        	addb	%ch, (%rsi)
     104: 64 79 6e                     	jns	0x175 <.shstrtab+0x175>
     107: 61                           	<unknown>
     108: 6d                           	insl	%dx, %es:(%rdi)
     109: 69 63 00 2e 67 6f 74         	imull	$1953457966, (%rbx), %esp # imm = 0x746F672E
     110: 00 2e                        	addb	%ch, (%rsi)
     112: 67 6f                        	outsl	(%esi), %dx
     114: 74 2e                        	je	0x144 <.shstrtab+0x144>
     116: 70 6c                        	jo	0x184 <.shstrtab+0x184>
     118: 74 00                        	je	0x11a <.shstrtab+0x11a>
     11a: 2e 64 61                     	<unknown>
     11d: 74 61                        	je	0x180 <.shstrtab+0x180>
     11f: 00 2e                        	addb	%ch, (%rsi)
     121: 62                           	<unknown>
     122: 73 73                        	jae	0x197 <.shstrtab+0x197>
     124: 00 2e                        	addb	%ch, (%rsi)
     126: 63 6f 6d                     	movslq	109(%rdi), %ebp
     129: 6d                           	insl	%dx, %es:(%rdi)
     12a: 65 6e                        	outsb	%gs:(%rsi), %dx
     12c: 74 00                        	je	0x12e <.shstrtab+0x12e>
